(dp0
Vhanging
p1
I1847
sVbringing
p2
I1526
sVwooden
p3
I579
sVwednesday
p4
I1462
sVcooking
p5
I2307
sVreplaced
p6
I1031
sVchina
p7
I944
sVkids
p8
I9827
sVtherefore
p9
I599
sVlocker
p10
I503
sVwant
p11
I29519
sVabsolute
p12
I1334
sVLA
p13
I1438
sVwelcomed
p14
I646
sVfit
p15
I2217
sVfix
p16
I2789
sVfig
p17
I647
sVservice
p18
I73336
sVneeded
p19
I7898
sVfeeling
p20
I4836
sVdozen
p21
I1776
sVsaying
p22
I4093
sVthai
p23
I9423
sVrich
p24
I2679
sVrice
p25
I14848
sVplate
p26
I10525
sVnicely
p27
I2450
sVpretzel
p28
I1008
sVlots
p29
I8996
sVnature
p30
I564
sVfruits
p31
I609
sVcut
p32
I5764
sV.
p33
I1782239
sVmuch
p34
I40584
sVfry
p35
I3025
sVdave
p36
I757
sVignored
p37
I825
sVsplit
p38
I3732
sVcorporate
p39
I1362
sVgolden
p40
I1316
sVhad
p41
I167547
sVhas
p42
I49404
sVonline
p43
I2783
sVcrowd
p44
I5929
sVbegin
p45
I1241
sVbottom
p46
I2651
sVmusic
p47
I11045
sVverde
p48
I538
sVnicest
p49
I654
sVroll
p50
I8019
sVE
p51
I517
sVchain
p52
I4837
sVpeople
p53
I39868
sVchair
p54
I1319
sVjerk
p55
I1085
sVchoice
p56
I6756
sVexact
p57
I854
sVminute
p58
I3534
sVcooks
p59
I877
sVground
p60
I1571
sVaddress
p61
I694
sVMY
p62
I659
sVopposed
p63
I547
sVoriginally
p64
I908
sVfollowing
p65
I1341
sVoatmeal
p66
I743
sVmatt
p67
I1141
sVmango
p68
I1825
sVpulled
p69
I3165
sVtravel
p70
I1301
sVyears
p71
I16119
sVdidn
p72
I35469
sVquarter
p73
I766
sVreceipt
p74
I914
sVentering
p75
I859
sVsalads
p76
I5605
sVseriously
p77
I6276
sVinternet
p78
I1147
sVgrandma
p79
I695
sVwrong
p80
I8830
sVsaving
p81
I734
sVone
p82
I93753
sVmignon
p83
I762
sVso-so
p84
I903
sVlocations
p85
I2952
sVzoo
p86
I793
sVopposite
p87
I602
sVbuffet
p88
I4264
sVYES
p89
I506
sVwest
p90
I2541
sVwants
p91
I1456
sVphotos
p92
I841
sVformer
p93
I740
sVsqueezed
p94
I611
sVsituation
p95
I1606
sVentered
p96
I815
sVnearby
p97
I2415
sVbeing
p98
I22239
sVwaitresses
p99
I1486
sVtraffic
p100
I1199
sVworld
p101
I5043
sVseating
p102
I7966
sVgrub
p103
I657
sVtvs
p104
I1640
sVdivine
p105
I908
sVlively
p106
I590
sVNO
p107
I1793
sVwith
p108
I249368
sVpull
p109
I1394
sVrush
p110
I2258
sVdirty
p111
I3433
sVtrips
p112
I826
sVwatched
p113
I1160
sVyoga
p114
I1420
sVbeware
p115
I785
sVsmall
p116
I22348
sVpast
p117
I6644
sVpass
p118
I2691
sVhasn
p119
I1013
sVfull
p120
I14575
sVhash
p121
I1648
sVexperience
p122
I25098
sVprior
p123
I1403
sVmore
p124
I60813
sVdoor
p125
I9691
sVcompany
p126
I4092
sVlearn
p127
I1268
sVhuge
p128
I13758
sVovercooked
p129
I1487
sVpaper
p130
I2646
sVrefried
p131
I577
sVsmiling
p132
I587
sVsauce
p133
I26801
sVeverytime
p134
I1008
sVdenny
p135
I903
sVcourses
p136
I1257
sVresearch
p137
I557
sVcalzone
p138
I645
sVbenedict
p139
I1053
sVword
p140
I2971
sVtheater
p141
I2767
sVsell
p142
I2747
sVself
p143
I1502
sValso
p144
I56743
sVugh
p145
I687
sVoverwhelmed
p146
I694
sVwraps
p147
I1139
sVgooey
p148
I639
sVbell
p149
I2069
sVbelt
p150
I539
sVdespite
p151
I2874
sVbudget
p152
I1103
sV30
p153
I6945
sVcuisine
p154
I2273
sVcheddar
p155
I1333
sVlady
p156
I3899
sVparents
p157
I1877
sVcouple
p158
I13280
sVOF
p159
I530
sVdeserves
p160
I949
sVmouth
p161
I4401
sVgyros
p162
I978
sVtasting
p163
I3458
sVopens
p164
I533
sVhawaiian
p165
I916
sVdiverse
p166
I823
sVchat
p167
I1064
sVtech
p168
I629
sVbianco
p169
I1881
sVland
p170
I724
sVbeverage
p171
I1201
sVvideo
p172
I831
sVmakes
p173
I11158
sVthats
p174
I1479
sVsnacks
p175
I988
sVbaby
p176
I2804
sVcustomer
p177
I10313
sVclients
p178
I669
sVwedge
p179
I556
sVprocess
p180
I1645
sVrealized
p181
I1884
sVperfect
p182
I15151
sVrealize
p183
I1993
sVglasses
p184
I2797
sVbooks
p185
I1917
sV'
p186
I629789
sVboutique
p187
I652
sVcould
p188
I37065
sVscene
p189
I1943
sVfestival
p190
I688
sVstomach
p191
I1607
sVtonight
p192
I2833
sVthanksgiving
p193
I592
sVbartenders
p194
I2351
sVbrew
p195
I893
sVjar
p196
I606
sVmushroom
p197
I2488
sVstuff
p198
I10366
sVguessing
p199
I525
sVahwatukee
p200
I565
sVoregano
p201
I973
sVoff
p202
I31046
sVwei
p203
I773
sVcrack
p204
I660
sVpies
p205
I748
sVbecome
p206
I2579
sVsourdough
p207
I580
sVpassion
p208
I627
sVpressure
p209
I701
sVswimming
p210
I576
sVtossed
p211
I620
sVplaced
p212
I1805
sVproblem
p213
I6891
sVcompared
p214
I2278
sVnonetheless
p215
I676
sVlately
p216
I889
sVdetails
p217
I840
sVrepeat
p218
I921
sVworth
p219
I17215
sVpanda
p220
I716
sVmachines
p221
I1189
sVpita
p222
I4031
sVpot
p223
I1872
sVEVER
p224
I1033
sVnuts
p225
I1268
sVappreciate
p226
I2683
sVcoffee
p227
I18258
sVsafe
p228
I1459
sVreasonably
p229
I2366
sVreasonable
p230
I6414
sVleftovers
p231
I1391
sVanother
p232
I21529
sVmojo
p233
I525
sVjohn
p234
I1186
sVdogs
p235
I4174
sVflavorful
p236
I5323
sVconvenient
p237
I2279
sVgravy
p238
I2273
sVruns
p239
I999
sVaway
p240
I14936
sVhandful
p241
I906
sVkitchen
p242
I7188
sVessentially
p243
I544
sVtons
p244
I2751
sVcons
p245
I806
sVhang
p246
I3102
sVhand
p247
I4710
sVhumble
p248
I534
sVthanks
p249
I4739
sVsometimes
p250
I6637
sVcooler
p251
I1085
sVnight
p252
I31052
sVhassle
p253
I592
sVconfusing
p254
I706
sVasking
p255
I2735
sVadorable
p256
I901
sVbreaded
p257
I679
sVtest
p258
I1018
sVconcept
p259
I2306
sVsilverware
p260
I536
sVguy
p261
I9216
sVcost
p262
I4288
sVshared
p263
I3346
sVregardless
p264
I977
sVextra
p265
I8677
sVchip
p266
I1593
sVchic
p267
I710
sVlounge
p268
I2501
sVproduct
p269
I2039
sVproduce
p270
I2259
sVserving
p271
I3503
sVended
p272
I5853
sVfacility
p273
I1235
sVnon
p274
I925
sVnot
p275
I172284
sVnor
p276
I1682
sVdrop
p277
I2062
sVyeah
p278
I4167
sVyear
p279
I9409
sVtries
p280
I528
sVring
p281
I818
sVtomorrow
p282
I669
sVcaught
p283
I1096
sVappreciated
p284
I1381
sVapples
p285
I799
sVimportantly
p286
I669
sVdiscovered
p287
I1386
sVpumpkin
p288
I1067
sVservings
p289
I532
sVdeath
p290
I534
sVfully
p291
I1033
sVstart
p292
I7616
sVstars
p293
I18638
sVpitcher
p294
I716
sVomelet
p295
I1466
sVfreakin
p296
I595
sVinstantly
p297
I582
sVpoor
p298
I3400
sVpool
p299
I6289
sVmonth
p300
I4233
sVYUM
p301
I1396
sVdecide
p302
I2089
sVburritos
p303
I1847
sVstreets
p304
I551
sVscallops
p305
I1767
sVlearned
p306
I1395
sVpub
p307
I1502
sVinspired
p308
I572
sVbase
p309
I896
sVask
p310
I12144
sVgrill
p311
I3688
sVSO
p312
I2306
sVanytime
p313
I1226
sVevening
p314
I5967
sVheavy
p315
I2300
sV7
p316
I4542
sVhouses
p317
I615
sVtrails
p318
I603
sVtoward
p319
I648
sVshirts
p320
I845
sVwasnt
p321
I701
sVcave
p322
I619
sVfeels
p323
I2056
sVhype
p324
I1232
sVdelux
p325
I874
sVlocals
p326
I889
sVpictures
p327
I1489
sVmissing
p328
I2294
sVempty
p329
I4440
sVlived
p330
I3447
sVN
p331
I869
sVlives
p332
I936
sVpack
p333
I1140
sVgrand
p334
I1309
sVfatty
p335
I824
sV000
p336
I624
sVobviously
p337
I2645
sVreviewed
p338
I699
sVreviewer
p339
I753
sVshowing
p340
I1018
sVpopular
p341
I1869
sVsmothered
p342
I641
sVworking
p343
I6168
sVtofu
p344
I2691
sVblow
p345
I875
sVsimilar
p346
I2612
sVordered
p347
I39044
sVTV
p348
I2691
sVdepartment
p349
I1398
sVe
p350
I1090
sVeverywhere
p351
I1961
sVfriendly
p352
I34429
sVtelling
p353
I1571
sVmichael
p354
I676
sVwatered
p355
I516
sVjump
p356
I558
sVeating
p357
I11386
sVpancake
p358
I835
sVmanage
p359
I580
sVcharming
p360
I1168
sVmeet
p361
I2759
sVfare
p362
I1967
sVfarm
p363
I1391
sVintroduced
p364
I843
sVscoop
p365
I981
sVincluding
p366
I4908
sVduring
p367
I11562
sVslide
p368
I578
sVspecial
p369
I15284
sVrushed
p370
I1037
sVtimes
p371
I24716
sVmargaritas
p372
I2566
sVpatties
p373
I569
sVglendale
p374
I1046
sVkey
p375
I1493
sVhits
p376
I764
sVtuesday
p377
I2027
sVsmoking
p378
I935
sVwood
p379
I1775
sVparts
p380
I1364
sVparty
p381
I7464
sVhttp
p382
I1788
sVliked
p383
I9110
sVadvertised
p384
I502
sVnecessary
p385
I820
sVlost
p386
I2770
sVlikes
p387
I1528
sVlibrary
p388
I951
sVhome
p389
I19903
sVUS
p390
I1329
sVtenderloin
p391
I674
sVsquare
p392
I1476
sVadditional
p393
I1431
sVnorth
p394
I3257
sVstrawberries
p395
I937
sVdisplay
p396
I1009
sVmarketplace
p397
I735
sVbeats
p398
I672
sVingredients
p399
I6197
sVstar
p400
I10571
sVstay
p401
I6696
sVbuddy
p402
I930
sVsorry
p403
I4237
sVenchiladas
p404
I2001
sVmen
p405
I1983
sVmet
p406
I2976
sVfajitas
p407
I736
sVfantastic
p408
I10063
sVslices
p409
I2996
sVsliced
p410
I1911
sVguests
p411
I2264
sVroom
p412
I18138
sVroof
p413
I682
sVmovies
p414
I1504
sVroot
p415
I815
sVfoods
p416
I3348
sVthird
p417
I1764
sVbefore
p418
I26984
sVpersonal
p419
I2874
sVcrew
p420
I885
sVcombination
p421
I2457
sVforgot
p422
I2587
sVbonus
p423
I1565
sVdebit
p424
I515
sVlettuce
p425
I4122
sVfloors
p426
I777
sVdownside
p427
I1085
sVginger
p428
I1337
sVannoyed
p429
I893
sVweekends
p430
I2349
sVappetizer
p431
I6549
sVcousin
p432
I539
sVsuggested
p433
I2048
sVputs
p434
I735
sVbasis
p435
I954
sVtiny
p436
I3516
sVbasic
p437
I2228
sVbasil
p438
I2640
sVlovely
p439
I3350
sVturned
p440
I3723
sVseven
p441
I611
sVcant
p442
I1582
sVsettled
p443
I753
sVyea
p444
I592
sVyep
p445
I638
sVyes
p446
I10493
sVsave
p447
I2917
sVmargherita
p448
I569
sVdeal
p449
I8712
sVdead
p450
I1583
sVcarts
p451
I590
sVmicrowave
p452
I642
sVmagazine
p453
I519
sVafternoon
p454
I4007
sVhospital
p455
I700
sVmixture
p456
I607
sVmanagers
p457
I574
sVdown
p458
I26911
sVawhile
p459
I1798
sVmarinated
p460
I865
sVweekend
p461
I5793
sVhappening
p462
I612
sVfather
p463
I678
sVround
p464
I2089
sVtalked
p465
I1373
sVfilled
p466
I4351
sVfrosting
p467
I906
sVbox
p468
I3554
sVmaking
p469
I6799
sVmembership
p470
I892
sVblock
p471
I1070
sVbasket
p472
I1299
sVshoes
p473
I2308
sVinteresting
p474
I5321
sVpolicy
p475
I835
sVtucked
p476
I1118
sVlunch
p477
I31706
sVbrews
p478
I734
sVdescription
p479
I674
sVG
p480
I663
sVthinks
p481
I568
sVwaiter
p482
I7676
sVfunky
p483
I956
sVwaited
p484
I5620
sVfirst
p485
I37559
sVspeaking
p486
I975
sVboba
p487
I1481
sVpastry
p488
I986
sVinterior
p489
I2525
sVjungle
p490
I1320
sVcomplaints
p491
I1923
sVget
p492
I88280
sVgem
p493
I2264
sVseared
p494
I926
sVmiles
p495
I2062
sVseat
p496
I4052
sVwonder
p497
I1878
sVsatisfying
p498
I1018
sVenough
p499
I19400
sVacross
p500
I5598
sVFOR
p501
I581
sVcoupons
p502
I1299
sVconsidering
p503
I3174
sVsquash
p504
I1017
sVsound
p505
I2426
sVworried
p506
I679
sVprotein
p507
I816
sVs
p508
I215047
sVconsisted
p509
I606
sVoutdoor
p510
I4266
sVflavor
p511
I15811
sVnaan
p512
I748
sVdraw
p513
I669
sVbutt
p514
I562
sVknife
p515
I609
sVAJ
p516
I648
sVeach
p517
I14044
sVcoupon
p518
I2363
sVspicy
p519
I11733
sVspice
p520
I2646
sVagain
p521
I29479
sVsaturday
p522
I7169
sVu
p523
I757
sVenjoying
p524
I1885
sVsitting
p525
I6330
sVgo
p526
I78548
sVdelivered
p527
I1926
sVcompanion
p528
I802
sVlasagna
p529
I668
sVW
p530
I669
sVkaraoke
p531
I910
sVhour
p532
I21086
sVrecall
p533
I729
sVsucks
p534
I1691
sVminimum
p535
I573
sVneeds
p536
I4842
sVcomfort
p537
I1367
sVstir
p538
I531
sVcoming
p539
I10044
sVthrough
p540
I12255
sVpesto
p541
I2123
sVbeginning
p542
I997
sVurban
p543
I1268
sVblanco
p544
I634
sVcouch
p545
I664
sVcharm
p546
I891
sVservices
p547
I1686
sVbusinesses
p548
I1204
sVexpress
p549
I1284
sVbreast
p550
I1157
sVrestaurants
p551
I10795
sVexpert
p552
I524
sVpissed
p553
I530
sVsalsas
p554
I963
sVrestaurant
p555
I40117
sVpoint
p556
I7478
sVexpensive
p557
I6277
sVpeppers
p558
I3004
sVbruschetta
p559
I2303
sVproducts
p560
I3094
sVtorta
p561
I1049
sVstrips
p562
I935
sVshape
p563
I959
sValternative
p564
I1054
sVcup
p565
I4799
sVcuz
p566
I769
sVknock
p567
I871
sVchow
p568
I819
sVabsolutely
p569
I7370
sVdecision
p570
I1054
sVdelish
p571
I2236
sVcafe
p572
I4478
sVcooked
p573
I9209
sVgroceries
p574
I591
sVdessert
p575
I10042
sVentire
p576
I5358
sVcolors
p577
I1018
sVaccess
p578
I1008
sVbartender
p579
I4474
sVflat
p580
I2669
sVclosing
p581
I1286
sVdidnt
p582
I1532
sVapologize
p583
I560
sVentree
p584
I3901
sVyard
p585
I784
sVNY
p586
I1474
sVnobody
p587
I1027
sVhave
p588
I202740
sVoccasion
p589
I1564
sVknowledge
p590
I803
sVregularly
p591
I1019
sVperfection
p592
I2141
sVfixed
p593
I1359
sVjoke
p594
I1250
sVseasoned
p595
I2475
sVwelcoming
p596
I1583
sVpartner
p597
I1115
sV)
p598
I150299
sVauto
p599
I620
sVvinaigrette
p600
I830
sVraving
p601
I527
sVLOVED
p602
I703
sVstores
p603
I3987
sVsmart
p604
I711
sVlike
p605
I115004
sVsuccess
p606
I538
sVchick
p607
I621
sVhair
p608
I4046
sVrecommendation
p609
I1632
sVhappens
p610
I1476
sVtrust
p611
I1813
sVsocks
p612
I536
sVfemale
p613
I662
sVcoke
p614
I1554
sVsonoran
p615
I537
sVdetail
p616
I1126
sVdresses
p617
I624
sVcondiments
p618
I702
sVappetite
p619
I744
sV@
p620
I1100
sVschool
p621
I4365
sVnail
p622
I1522
sVblue
p623
I3847
sVselected
p624
I509
sVsupplies
p625
I699
sVmozzarella
p626
I2239
sVleaves
p627
I1459
sVmeats
p628
I2539
sVmeaty
p629
I548
sVwould
p630
I72013
sVexcellent
p631
I15528
sVONE
p632
I652
sVsalsa
p633
I9699
sVrental
p634
I805
sVprosciutto
p635
I1267
sVlaid
p636
I1742
sVprovide
p637
I1594
sVcibo
p638
I734
sVdays
p639
I7691
sVheck
p640
I1150
sVsoda
p641
I3309
sVhangout
p642
I550
sVfrankly
p643
I718
sV2-3
p644
I530
sVlunchtime
p645
I594
sVthoroughly
p646
I1010
sVthorough
p647
I512
sVR
p648
I565
sVoverpriced
p649
I3074
sVwedding
p650
I2012
sVgenerally
p651
I2356
sVfinger
p652
I615
sVhopefully
p653
I1537
sVhowever
p654
I14676
sVnews
p655
I884
sVfault
p656
I1424
sVbet
p657
I1114
sVconference
p658
I690
sVn
p659
I2321
sVdumplings
p660
I823
sVbroth
p661
I2047
sVaccessories
p662
I697
sVpeaks
p663
I1156
sVgreeted
p664
I3501
sVshortly
p665
I731
sVable
p666
I8204
sVfollowed
p667
I1111
sVcherry
p668
I1158
sVgave
p669
I9209
sVburnt
p670
I1177
sVhunt
p671
I537
sVdinner
p672
I22440
sVahi
p673
I1397
sVstuck
p674
I1853
sVsometime
p675
I918
sVwhen
p676
I80010
sVsetting
p677
I2310
sVpicture
p678
I1574
sVfootball
p679
I1230
sVfaster
p680
I652
sVrow
p681
I921
sVimpressive
p682
I1929
sVlevel
p683
I3055
sVstandards
p684
I965
sVbisque
p685
I544
sVpork
p686
I11467
sVgoes
p687
I4281
sVdiscount
p688
I1845
sVentrees
p689
I3892
sVceviche
p690
I852
sVedible
p691
I810
sVcowboy
p692
I859
sVmeatball
p693
I841
sVpickle
p694
I678
sVfigure
p695
I2089
sVfarmer
p696
I506
sVturn
p697
I2936
sVhandled
p698
I537
sVmasala
p699
I641
sVregister
p700
I1598
sVlater
p701
I8381
sVcheap
p702
I9513
sVportions
p703
I7292
sVruined
p704
I611
sVquiet
p705
I2589
sVperiod
p706
I797
sVturkey
p707
I3760
sVdirection
p708
I669
sVbummer
p709
I703
sVcase
p710
I4220
sVgranted
p711
I947
sVweek
p712
I11572
sVdelectable
p713
I611
sVlucky
p714
I2494
sVwithout
p715
I12216
sVpolish
p716
I847
sVlets
p717
I1045
sVsoy
p718
I1800
sVmood
p719
I2847
sVmoon
p720
I666
sVhipster
p721
I858
sVthere
p722
I131837
sVcostco
p723
I1276
sVgrass
p724
I897
sVtaste
p725
I16605
sVtasty
p726
I19081
sVwife
p727
I8793
sVwifi
p728
I1378
sVplatter
p729
I1904
sVdairy
p730
I675
sVlist
p731
I7175
sVmorning
p732
I6723
sVsub
p733
I2406
sVsun
p734
I2417
sVsum
p735
I1622
sVversion
p736
I2069
sVdonuts
p737
I1931
sVflag
p738
I574
sVsalted
p739
I885
sVoccasionally
p740
I803
sVlighting
p741
I1845
sVadventure
p742
I540
sVshort
p743
I6099
sVavenue
p744
I778
sVsomebody
p745
I557
sVeclectic
p746
I788
sVadventurous
p747
I695
sVweight
p748
I890
sValcohol
p749
I1830
sVfriday
p750
I6341
sVstory
p751
I2022
sV"
p752
I131795
sVcomfy
p753
I1574
sVluckily
p754
I1583
sVking
p755
I1302
sVkind
p756
I15097
sVdried
p757
I1241
sVtraditional
p758
I2997
sVwrote
p759
I794
sVsold
p760
I1664
sVsweet
p761
I18390
sVvillage
p762
I536
sVflight
p763
I1969
sVshirt
p764
I915
sV9
p765
I3089
sVhigher
p766
I2124
sVGOOD
p767
I1088
sVquestions
p768
I2609
sVskeptical
p769
I621
sVphone
p770
I4274
sVsauces
p771
I2904
sVM
p772
I689
sVrefused
p773
I645
sVplaza
p774
I845
sVrange
p775
I1888
sVcomplimentary
p776
I1720
sVimpressed
p777
I7106
sVtoday
p778
I8939
sVpeach
p779
I915
sVnice
p780
I50721
sVhappier
p781
I512
sVbuffalo
p782
I1728
sVinclude
p783
I1515
sVchose
p784
I2941
sVdegree
p785
I828
sVlarger
p786
I1946
sVleaving
p787
I2274
sVapp
p788
I1346
sVfrom
p789
I82786
sVtaco
p790
I6304
sVmojito
p791
I746
sVricotta
p792
I692
sVholiday
p793
I1057
sVcrowds
p794
I877
sVour
p795
I75683
sVWOW
p796
I1263
sVorganic
p797
I2480
sVhence
p798
I607
sVpretzels
p799
I689
sVwho
p800
I32008
sVwhy
p801
I15228
sVson
p802
I2810
sVfear
p803
I567
sVlocal
p804
I10057
sVfavor
p805
I1103
sVbought
p806
I3938
sVopening
p807
I2282
sVjoy
p808
I518
sVjob
p809
I7082
sVjoe
p810
I2701
sVgrounds
p811
I996
sVnigiri
p812
I518
sVsecond
p813
I8424
sVdecent
p814
I12521
sVlast
p815
I22421
sVthus
p816
I820
sVperhaps
p817
I3312
sVdifficult
p818
I2332
sVfacial
p819
I607
sVpress
p820
I549
sVmeatloaf
p821
I628
sVpasty
p822
I1264
sVpasta
p823
I5984
sVrare
p824
I2744
sVweather
p825
I2467
sVpromise
p826
I721
sVvolume
p827
I565
sVcake
p828
I6655
sVincredible
p829
I3066
sVincredibly
p830
I2431
sVkinds
p831
I1756
sVshredded
p832
I1670
sVkinda
p833
I3992
sVyellow
p834
I1319
sVdeli
p835
I2492
sVstraight
p836
I2212
sVNOT
p837
I4152
sVexplained
p838
I1889
sVspoke
p839
I1000
sVrelax
p840
I1497
sVhurt
p841
I819
sVfoodie
p842
I703
sVorganized
p843
I1161
sVcomplaining
p844
I792
sVmachine
p845
I1906
sVyum
p846
I3735
sVkeeps
p847
I1184
sVwing
p848
I780
sVwine
p849
I17703
sVbowls
p850
I1086
sVassured
p851
I544
sVnecessarily
p852
I586
sVheading
p853
I1016
sVwash
p854
I2237
sVlisted
p855
I1025
sVlegs
p856
I920
sVlisten
p857
I1188
sVcrave
p858
I881
sVbomb
p859
I1063
sVtequila
p860
I1021
sVmenu
p861
I39998
sVtheme
p862
I1117
sVbleu
p863
I535
sVfair
p864
I3894
sVfail
p865
I591
sVbest
p866
I43340
sVnever
p867
I33926
sVcards
p868
I1634
sVceiling
p869
I894
sVlife
p870
I5529
sVchile
p871
I2817
sVchild
p872
I1279
sVchili
p873
I4554
sVchill
p874
I1694
sVvisit
p875
I15470
sVfairly
p876
I3580
sVtops
p877
I925
sVnachos
p878
I1783
sVpossible
p879
I2497
sVpossibly
p880
I1753
sVOK
p881
I4774
sVunique
p882
I5770
sVOH
p883
I564
sVfor
p884
I350268
sVfox
p885
I829
sVdental
p886
I503
sVdollars
p887
I2257
sVhappy
p888
I25763
sVfeet
p889
I1801
sVproud
p890
I554
sVrepublic
p891
I654
sVpostino
p892
I1104
sVmahi
p893
I745
sVteas
p894
I971
sVsubway
p895
I1331
sVsteaks
p896
I1333
sVcleanliness
p897
I686
sVcurrent
p898
I876
sVlove
p899
I48787
sVbloody
p900
I1118
sVwondering
p901
I882
sVafford
p902
I812
sVwinter
p903
I1025
sVjazz
p904
I619
sVspot
p905
I12276
sVdate
p906
I5759
sVbagels
p907
I1388
sVinto
p908
I22989
sVarriving
p909
I568
sVbowling
p910
I832
sVcontainer
p911
I772
sVmillion
p912
I689
sV2
p913
I27038
sVsuit
p914
I615
sVfuture
p915
I2589
sVtasted
p916
I10488
sVnicer
p917
I1081
sVtastes
p918
I3956
sVtake
p919
I25434
sVdefinite
p920
I523
sVup
p921
I77757
sVpaired
p922
I737
sVchorizo
p923
I1455
sVvacation
p924
I1065
sVbreath
p925
I531
sVcombined
p926
I606
sVundercooked
p927
I700
sVcheers
p928
I578
sVcosts
p929
I1090
sVweekly
p930
I992
sV60
p931
I892
sVwent
p932
I37498
sVindustry
p933
I594
sVact
p934
I935
sVparties
p935
I1230
sVbuying
p936
I1851
sVagree
p937
I2509
sVgone
p938
I5510
sVah
p939
I519
sVal
p940
I1079
sVan
p941
I69407
sVas
p942
I129775
sVau
p943
I590
sVat
p944
I151956
sVherbs
p945
I689
sVfresh
p946
I28856
sVoriginal
p947
I2940
sVcontent
p948
I564
sVdressing
p949
I4247
sVcondition
p950
I611
sVcash
p951
I2968
sVseemed
p952
I9775
sVhours
p953
I9160
sVpics
p954
I503
sVpico
p955
I739
sVpick
p956
I6671
sVaction
p957
I657
sVkeeping
p958
I1243
sVbeautiful
p959
I6821
sVaccept
p960
I783
sVstates
p961
I683
sVAMAZING
p962
I1803
sVsense
p963
I2133
sVinformation
p964
I1087
sVbrowns
p965
I959
sVwaitstaff
p966
I919
sVmexican
p967
I12085
sVcatfish
p968
I590
sVwasabi
p969
I730
sVIPA
p970
I544
sValways
p971
I44974
sVimagine
p972
I2640
sVw
p973
I4223
sVnumber
p974
I3993
sVheads
p975
I644
sVP.S.
p976
I547
sVsouthern
p977
I926
sVomelette
p978
I686
sVpear
p979
I915
sVplay
p980
I4166
sVplan
p981
I3169
sVcover
p982
I1868
sVfailed
p983
I723
sVset
p984
I5634
sVsee
p985
I27454
sVsea
p986
I1532
sVnope
p987
I671
sVwhole
p988
I10707
sVdrunk
p989
I1580
sVcommunity
p990
I1420
sVhitting
p991
I625
sVfire
p992
I1998
sVfunny
p993
I2357
sVdecor
p994
I8955
sVlevels
p995
I603
sVrecent
p996
I1986
sVcanned
p997
I732
sVlocation
p998
I23138
sVsight
p999
I687
sVbe
p1000
I126782
sVbf
p1001
I980
sVby
p1002
I55389
sVanything
p1003
I14694
sVnext
p1004
I24437
sVspecifically
p1005
I988
sVrelaxed
p1006
I1451
sVbuttery
p1007
I882
sVline
p1008
I9542
sVdefinitely
p1009
I26450
sVsides
p1010
I3810
sVwalked
p1011
I8161
sVhello
p1012
I1182
sVresults
p1013
I688
sVsend
p1014
I1501
sVsent
p1015
I1978
sVpaid
p1016
I4026
sVmediterranean
p1017
I902
sVlee
p1018
I1240
sVleg
p1019
I731
sVlet
p1020
I13535
sVstanding
p1021
I1797
sVdoubt
p1022
I1761
sVhigh
p1023
I11050
sVanimal
p1024
I964
sVblocks
p1025
I785
sVdelightful
p1026
I1350
sVbad
p1027
I23379
sVsurely
p1028
I530
sVowned
p1029
I2286
sVowner
p1030
I9033
sVsteep
p1031
I797
sVclearly
p1032
I2226
sVbikes
p1033
I576
sVhope
p1034
I4681
sVemail
p1035
I1005
sVco
p1036
I589
sVarugula
p1037
I775
sVpicking
p1038
I1058
sVball
p1039
I1484
sVphx
p1040
I786
sVdeserve
p1041
I723
sVbananas
p1042
I665
sVgenerous
p1043
I2832
sVteriyaki
p1044
I1353
sVcrisp
p1045
I2666
sVonion
p1046
I4735
sVreplacement
p1047
I537
sVavoid
p1048
I2517
sVstage
p1049
I1074
sVsister
p1050
I2182
sVdelivery
p1051
I2127
sVconstruction
p1052
I624
sVsmooth
p1053
I1289
sVvariety
p1054
I6309
sVfrancisco
p1055
I720
sVexception
p1056
I1005
sVapartment
p1057
I873
sVsmoky
p1058
I622
sVsmoke
p1059
I1354
sVaka
p1060
I538
sVordinary
p1061
I640
sVgreet
p1062
I681
sVgreek
p1063
I2574
sVgreen
p1064
I9959
sVsomewhere
p1065
I3113
sVbottled
p1066
I770
sVsake
p1067
I1545
sVthen
p1068
I32873
sVthem
p1069
I47626
sVthey
p1070
I229388
sVordering
p1071
I5246
sVchopped
p1072
I1864
sVplentiful
p1073
I869
sVB
p1074
I1231
sVmanner
p1075
I752
sVjust
p1076
I104621
sVdo
p1077
I45119
sVdr
p1078
I3287
sVgentleman
p1079
I810
sVBUT
p1080
I1293
sVprops
p1081
I537
sVhummus
p1082
I3697
sVrequests
p1083
I528
sVbuffets
p1084
I551
sVvoice
p1085
I596
sVplates
p1086
I3943
sVrail
p1087
I1387
sVkept
p1088
I4801
sVdishes
p1089
I11126
sVthe
p1090
I1535859
sVadding
p1091
I1050
sVspread
p1092
I1249
sVsecurity
p1093
I1335
sVphenomenal
p1094
I1379
sVcomments
p1095
I660
sVdiner
p1096
I1764
sVtheirs
p1097
I692
sVdined
p1098
I991
sVbalanced
p1099
I564
sVfight
p1100
I736
sVthrow
p1101
I1696
sVmole
p1102
I581
sVpower
p1103
I920
sVinterested
p1104
I1366
sVpolite
p1105
I1532
sVtogether
p1106
I4586
sVblast
p1107
I897
sVmargarita
p1108
I2699
sVp
p1109
I914
sVsatisfy
p1110
I753
sVsupporting
p1111
I526
sVappears
p1112
I818
sVchange
p1113
I5155
sVhiking
p1114
I603
sVrarely
p1115
I1356
sVlive
p1116
I10033
sVentrance
p1117
I1520
sVspa
p1118
I2620
sVmeans
p1119
I3189
sVcrepe
p1120
I942
sVremember
p1121
I7001
sVrather
p1122
I6539
sVindeed
p1123
I988
sVhaircut
p1124
I627
sVcold
p1125
I7611
sVcole
p1126
I705
sVhalf
p1127
I12653
sVhall
p1128
I589
sVwont
p1129
I919
sVrelleno
p1130
I660
sVentirely
p1131
I726
sVem
p1132
I972
sVel
p1133
I1117
sVeh
p1134
I998
sVokay
p1135
I8052
sVopened
p1136
I4426
sVspace
p1137
I5653
sVshows
p1138
I1737
sVimpossible
p1139
I915
sVsize
p1140
I7369
sVfriend
p1141
I16174
sVmostly
p1142
I3428
sVfruity
p1143
I514
sVlunches
p1144
I552
sVbreakfast
p1145
I17859
sVPS
p1146
I554
sVsunset
p1147
I539
sVtexture
p1148
I2565
sVloves
p1149
I2350
sVPM
p1150
I709
sVhusband
p1151
I10897
sVconcert
p1152
I706
sVcomes
p1153
I9302
sVmediocre
p1154
I3111
sVcoworkers
p1155
I821
sVfinish
p1156
I3474
sVfruit
p1157
I4136
sVrestrooms
p1158
I726
sVtouch
p1159
I3296
sVspeed
p1160
I686
sVtreatment
p1161
I1020
sVreal
p1162
I9318
sVread
p1163
I5167
sVcentral
p1164
I2609
sVchop
p1165
I988
sVfell
p1166
I1505
sVprepare
p1167
I941
sVtrying
p1168
I10085
sVdescribe
p1169
I1253
sVmoved
p1170
I4295
sVsales
p1171
I1945
sVevenings
p1172
I536
sVvery
p1173
I98863
sVmill
p1174
I2397
sVapologized
p1175
I899
sVstrong
p1176
I2820
sVrespect
p1177
I670
sVahead
p1178
I2602
sVcookie
p1179
I2817
sVchunks
p1180
I1327
sVbroke
p1181
I801
sVhurry
p1182
I1107
sVchops
p1183
I549
sVbreads
p1184
I787
sVfeel
p1185
I18833
sVfool
p1186
I506
sVfood
p1187
I140428
sVfoot
p1188
I1429
sVsince
p1189
I25912
sVbass
p1190
I814
sVdirt
p1191
I725
sVput
p1192
I12381
sVdeciding
p1193
I522
sVcoleslaw
p1194
I822
sVjuicy
p1195
I2488
sVjuice
p1196
I2435
sVtowards
p1197
I1306
sVquote
p1198
I576
sVeater
p1199
I810
sVeaten
p1200
I5548
sVblend
p1201
I1075
sVbooze
p1202
I835
sVpretty
p1203
I40191
sVtrees
p1204
I927
sVfeed
p1205
I1086
sVwow
p1206
I4136
sVwon
p1207
I9920
sVbuzz
p1208
I573
sVdescribed
p1209
I886
sVmaintenance
p1210
I616
sVwait
p1211
I25920
sVwet
p1212
I924
sVelse
p1213
I13324
sVanymore
p1214
I2030
sVused
p1215
I13298
sVuses
p1216
I620
sVhelping
p1217
I1274
sV...
p1218
I126862
sVmarch
p1219
I505
sVtrendy
p1220
I1893
sVrun
p1221
I6378
sVrum
p1222
I665
sV75
p1223
I620
sVseeing
p1224
I2785
sVrolls
p1225
I7792
sVhimself
p1226
I957
sVthru
p1227
I1410
sVadults
p1228
I941
sVdoesn
p1229
I10104
sVsharing
p1230
I961
sVacceptable
p1231
I608
sVvisits
p1232
I2162
sVrequired
p1233
I572
sVass
p1234
I2019
sVasparagus
p1235
I1370
sVcupcakes
p1236
I1942
sVespresso
p1237
I1594
sVvalet
p1238
I1675
sV;
p1239
I16876
sVarrive
p1240
I1645
sVinitial
p1241
I604
sVdonut
p1242
I876
sVvibe
p1243
I3686
sVpink
p1244
I1521
sVsangria
p1245
I1463
sVpools
p1246
I744
sVkeep
p1247
I9505
sVASU
p1248
I1838
sVgrow
p1249
I525
sVoverwhelming
p1250
I937
sVbed
p1251
I2336
sVexhibit
p1252
I648
sVlightly
p1253
I800
sVcarrots
p1254
I1137
sVsprinkles
p1255
I669
sVanyway
p1256
I5445
sVparked
p1257
I721
sVhadn
p1258
I2110
sVshe
p1259
I43821
sVlux
p1260
I804
sVcorrectly
p1261
I723
sVhorrible
p1262
I3363
sVneither
p1263
I1400
sVsmoothie
p1264
I744
sVirish
p1265
I1285
sVaddition
p1266
I2816
sVmail
p1267
I591
sVbrunch
p1268
I3758
sVi
p1269
I34666
sVsizes
p1270
I1393
sVcandy
p1271
I1952
sVsized
p1272
I2029
sVliking
p1273
I961
sVmushrooms
p1274
I2994
sVnoticed
p1275
I4469
sVhi
p1276
I604
sVha
p1277
I679
sVFEZ
p1278
I510
sVhe
p1279
I48820
sVtwist
p1280
I636
sVgorgonzola
p1281
I530
sVfrozen
p1282
I3974
sVclothes
p1283
I2124
sVNYC
p1284
I845
sVnew
p1285
I27207
sVrecommend
p1286
I15641
sVtype
p1287
I5907
sVtell
p1288
I9889
sVgive
p1289
I23527
sVindulge
p1290
I559
sVpanini
p1291
I972
sVluck
p1292
I1494
sVsurprise
p1293
I3085
sVgrease
p1294
I1143
sVgreasy
p1295
I3960
sVaisle
p1296
I550
sVisn
p1297
I10558
sVloud
p1298
I4653
sVhood
p1299
I621
sVgirls
p1300
I3426
sVmatter
p1301
I3265
sVmeaning
p1302
I869
sVpoints
p1303
I1787
sVstop
p1304
I9825
sVsorts
p1305
I744
sVappeared
p1306
I1088
sVproceeded
p1307
I775
sVnear
p1308
I6077
sVneat
p1309
I1196
sVis
p1310
I394768
sVcomplaint
p1311
I3064
sVim
p1312
I1655
sVin
p1313
I338764
sVif
p1314
I107560
sVbottles
p1315
I1910
sVwww
p1316
I1707
sVtotal
p1317
I3679
sVburn
p1318
I642
sVfork
p1319
I1173
sVform
p1320
I1149
sVmarinara
p1321
I790
sVtucson
p1322
I753
sVsticks
p1323
I906
sVclassic
p1324
I2221
sVsticky
p1325
I1023
sVshit
p1326
I1493
sVfelt
p1327
I8530
sVdiet
p1328
I1613
sVassume
p1329
I847
sVskip
p1330
I1532
sVskin
p1331
I1463
sVyummy
p1332
I8107
sVanswered
p1333
I838
sVretro
p1334
I651
sVgnocchi
p1335
I732
sVgenuinely
p1336
I622
sVooo
p1337
I2887
sVolive
p1338
I2706
sVeffort
p1339
I1224
sVwallet
p1340
I816
sVgrowing
p1341
I870
sVcrazy
p1342
I3719
sVsundae
p1343
I551
sVtill
p1344
I1084
sVsunday
p1345
I6418
sVpint
p1346
I621
sVdesigner
p1347
I538
sVdesigned
p1348
I769
sVguys
p1349
I6547
sVmaybe
p1350
I15653
sVtapas
p1351
I775
sVcute
p1352
I6008
sVpointed
p1353
I889
sVcuts
p1354
I802
sVtexas
p1355
I1046
sVkiller
p1356
I1050
sVsooner
p1357
I523
sVafter
p1358
I41876
sVwi-fi
p1359
I809
sVexotic
p1360
I596
sVquestion
p1361
I1602
sVlong
p1362
I18412
sVcarry
p1363
I2150
sVgotta
p1364
I1687
sVventure
p1365
I772
sVwere
p1366
I137899
sVcoconut
p1367
I2367
sVpain
p1368
I1352
sVpair
p1369
I1470
sVcuban
p1370
I727
sVgyro
p1371
I1962
sVcontemporary
p1372
I606
sVhoney
p1373
I2588
sVblack
p1374
I5187
sVbehind
p1375
I5637
sVchewy
p1376
I1679
sVreading
p1377
I2955
sVchecks
p1378
I706
sVtub
p1379
I713
sVdates
p1380
I770
sVdisappointment
p1381
I1685
sVoffered
p1382
I4813
sVsavory
p1383
I1277
sVthose
p1384
I15698
sVaccording
p1385
I774
sVmiddle
p1386
I4384
sVtotally
p1387
I5960
sVparlor
p1388
I663
sVgross
p1389
I1926
sVseconds
p1390
I992
sVbroken
p1391
I1316
sVisland
p1392
I1054
sVstrawberry
p1393
I2067
sVgirlfriend
p1394
I2286
sVfield
p1395
I1153
sVbrands
p1396
I585
sVstarting
p1397
I1458
sVsashimi
p1398
I1347
sVfall
p1399
I1775
sVstood
p1400
I1348
sVK
p1401
I618
sVsearch
p1402
I1233
sVairport
p1403
I3408
sVnone
p1404
I2598
sVroosevelt
p1405
I631
sVdel
p1406
I559
sVdef
p1407
I831
sVcompare
p1408
I1388
sVpurchased
p1409
I1627
sVdifferent
p1410
I17320
sVblood
p1411
I848
sVdoctor
p1412
I1166
sVpleasure
p1413
I1204
sVdough
p1414
I1337
sVto-go
p1415
I1038
sVlate
p1416
I6420
sVwalls
p1417
I2802
sVeveryone
p1418
I12724
sVidea
p1419
I5000
sVinsurance
p1420
I841
sVpaint
p1421
I830
sVb
p1422
I1148
sVtrip
p1423
I6196
sVthomas
p1424
I574
sVnervous
p1425
I601
sVcheaper
p1426
I2267
sVbatter
p1427
I1023
sVindividual
p1428
I728
sVtender
p1429
I4248
sVdipped
p1430
I535
sValot
p1431
I1175
sVcreate
p1432
I1005
sVsecret
p1433
I1309
sV4
p1434
I16721
sVpriced
p1435
I5601
sVpricey
p1436
I4730
sVunderstand
p1437
I4255
sVprices
p1438
I19935
sVbill
p1439
I5659
sVmimosas
p1440
I502
sVfun
p1441
I15051
sVcents
p1442
I1123
sVencountered
p1443
I577
sVmoment
p1444
I1899
sVspent
p1445
I3527
sVspend
p1446
I4457
sVback
p1447
I69269
sVper
p1448
I3080
sVpei
p1449
I773
sVnose
p1450
I541
sVbeans
p1451
I8389
sVsignature
p1452
I1257
sVhomemade
p1453
I3465
sVforward
p1454
I3823
sVexplaining
p1455
I535
sVoverly
p1456
I2150
sVpeanut
p1457
I2435
sVputting
p1458
I1479
sVgiving
p1459
I4127
sVnapkins
p1460
I780
sVthemselves
p1461
I1842
sVoily
p1462
I807
sVstations
p1463
I523
sVfeta
p1464
I1202
sVHUGE
p1465
I1969
sVbothered
p1466
I684
sVbunch
p1467
I2756
sVla
p1468
I2693
sVlo
p1469
I707
sVll
p1470
I26840
sVred
p1471
I11254
sVfrank
p1472
I694
sVretail
p1473
I758
sVcomfortable
p1474
I5693
sVmornings
p1475
I577
sVeight
p1476
I548
sVtake-out
p1477
I964
sVareas
p1478
I1982
sVnational
p1479
I523
sVsuperior
p1480
I591
sVpassing
p1481
I607
sVcomment
p1482
I1410
sVlaugh
p1483
I660
sVcitrus
p1484
I570
sVshuttle
p1485
I661
sVcenter
p1486
I4338
sVlatest
p1487
I529
sVseats
p1488
I3457
sVraved
p1489
I683
sVburgers
p1490
I7132
sVworks
p1491
I2978
sVrefill
p1492
I1384
sVstudents
p1493
I1056
sVslight
p1494
I790
sV!!
p1495
I16925
sVbuy
p1496
I7474
sVbus
p1497
I987
sVbut
p1498
I247634
sVbun
p1499
I2839
sVwise
p1500
I906
sVminutes
p1501
I19057
sVout
p1502
I103581
sVbaked
p1503
I3842
sVhate
p1504
I4035
sVevery
p1505
I23864
sVenjoy
p1506
I13326
sVpath
p1507
I589
sVme
p1508
I107074
sVmi
p1509
I659
sVmr
p1510
I1111
sVmy
p1511
I258414
sVend
p1512
I9465
sVcharging
p1513
I612
sVmess
p1514
I1969
sVmesa
p1515
I2019
sVenter
p1516
I1139
sVexpectations
p1517
I2247
sVfilling
p1518
I3269
sVgod
p1519
I1949
sVtried
p1520
I19052
sVwashed
p1521
I533
sVgot
p1522
I43920
sVinexpensive
p1523
I1619
sValready
p1524
I6569
sVprovolone
p1525
I522
sVserve
p1526
I6764
sVtook
p1527
I18873
sVwestern
p1528
I609
sVbrulee
p1529
I818
sVfashion
p1530
I1788
sVtalking
p1531
I3910
sVtreats
p1532
I1423
sVflow
p1533
I506
sVrandom
p1534
I1577
sVkale
p1535
I566
sVtwice
p1536
I5498
sVshots
p1537
I1074
sVduck
p1538
I2170
sVnut
p1539
I578
sVresist
p1540
I534
sVboss
p1541
I590
sVimprove
p1542
I744
sVtowels
p1543
I748
sVcomplex
p1544
I1244
sVseveral
p1545
I10424
sVgreatest
p1546
I790
sVD
p1547
I1462
sVbands
p1548
I884
sVapart
p1549
I1383
sVgift
p1550
I2735
sVclubs
p1551
I568
sVice
p1552
I10546
sVchristmas
p1553
I1533
sVcorn
p1554
I5080
sVtortilla
p1555
I2953
sVaccommodate
p1556
I727
sVcafeteria
p1557
I678
sVhead
p1558
I5108
sVmedium
p1559
I3330
sVhear
p1560
I4110
sVbargain
p1561
I660
sVno
p1562
I54138
sVsink
p1563
I510
sVagreed
p1564
I1348
sVtown
p1565
I13541
sVsubstitute
p1566
I509
sVpleased
p1567
I2580
sVgroups
p1568
I1498
sVweird
p1569
I3814
sV1st
p1570
I1156
sVchocolate
p1571
I9516
sVdropped
p1572
I1576
sVflavored
p1573
I1330
sVrefund
p1574
I685
sVconversations
p1575
I504
sVmiss
p1576
I4475
sVhut
p1577
I819
sVand
p1578
I1004247
sVany
p1579
I28260
sVdining
p1580
I10047
sVvisitors
p1581
I571
sVconsidered
p1582
I774
sVyelper
p1583
I592
sVrecipe
p1584
I802
sVsouthwestern
p1585
I566
sVfreaking
p1586
I906
sVpicnic
p1587
I791
sVcolor
p1588
I1984
sVWAY
p1589
I839
sVpaying
p1590
I3269
sVevents
p1591
I1515
sVbooths
p1592
I1659
sVchanging
p1593
I1022
sVexcept
p1594
I3873
sVscheduled
p1595
I524
sVprovided
p1596
I1452
sVprovides
p1597
I675
sVupdate
p1598
I1868
sVon
p1599
I212227
sVol
p1600
I559
sVok
p1601
I11021
sVof
p1602
I474520
sVoz
p1603
I899
sVhouse
p1604
I13312
sVbeds
p1605
I798
sVstumbled
p1606
I714
sVincluded
p1607
I2776
sVsongs
p1608
I639
sVparmesan
p1609
I1223
sVfollow
p1610
I1038
sVdepending
p1611
I1131
sVpresentation
p1612
I1804
sVwoman
p1613
I2616
sVworse
p1614
I2153
sVworst
p1615
I3532
sVten
p1616
I1783
sVbistro
p1617
I1158
sVtea
p1618
I8824
sVrate
p1619
I2170
sVdesign
p1620
I1685
sVoptions
p1621
I8346
sVthankfully
p1622
I825
sVscreens
p1623
I724
sVmight
p1624
I9834
sVinch
p1625
I679
sVbigger
p1626
I2060
sVturns
p1627
I1288
sVparadise
p1628
I1494
sVthrown
p1629
I712
sVbland
p1630
I5095
sVtemperature
p1631
I1012
sVoutstanding
p1632
I3362
sVadded
p1633
I4152
sVappeal
p1634
I588
sVTHIS
p1635
I1055
sVPHX
p1636
I1205
sVrecently
p1637
I5041
sVlicense
p1638
I511
sVreasons
p1639
I1546
sVdue
p1640
I3993
sVbrick
p1641
I840
sVchandler
p1642
I2870
sVarrived
p1643
I6880
sVlower
p1644
I1264
sVfucking
p1645
I583
sVtends
p1646
I508
sVfast
p1647
I10638
sVvendors
p1648
I628
sVfries
p1649
I18226
sVlemon
p1650
I2676
sVsteve
p1651
I561
sVissues
p1652
I2308
sVwaiters
p1653
I1210
sVdrinking
p1654
I2643
sVrefilled
p1655
I647
sVcozy
p1656
I2657
sVgluten-free
p1657
I519
sVdesired
p1658
I860
sVsexy
p1659
I607
sVuse
p1660
I10850
sVfee
p1661
I1536
sVfew
p1662
I29606
sVfez
p1663
I690
sVcarrot
p1664
I777
sVsomething
p1665
I25482
sVgallo
p1666
I915
sVeasily
p1667
I3361
sVmartini
p1668
I1942
sVorange
p1669
I3865
sVeconomy
p1670
I591
sVpromptly
p1671
I1593
sVusual
p1672
I3282
sVvan
p1673
I505
sVboring
p1674
I1636
sV=
p1675
I5676
sVbarista
p1676
I585
sVlooked
p1677
I11806
sVplanning
p1678
I1095
sVTHE
p1679
I2683
sVstill
p1680
I26820
sVmeatballs
p1681
I1297
sVtable
p1682
I22800
sVpainted
p1683
I524
sVFREE
p1684
I574
sVlayer
p1685
I550
sVave
p1686
I1832
sVcross
p1687
I631
sVmember
p1688
I1331
sVdefinately
p1689
I739
sVT
p1690
I1106
sVhelpful
p1691
I8338
sVthroughout
p1692
I2328
sVplaces
p1693
I18007
sVown
p1694
I10248
sVapps
p1695
I1269
sVrecord
p1696
I697
sVblown
p1697
I1063
sVother
p1698
I50538
sVgelato
p1699
I2343
sVfour
p1700
I7020
sVcommented
p1701
I510
sVreplace
p1702
I778
sVstrike
p1703
I549
sVitself
p1704
I5423
sVfeature
p1705
I664
sVtypes
p1706
I2123
sVthrew
p1707
I931
sVeasier
p1708
I954
sVdrove
p1709
I1672
sVrd
p1710
I819
sVre
p1711
I29555
sVwritten
p1712
I913
sVvisited
p1713
I3320
sVtrek
p1714
I506
sVshowed
p1715
I2391
sVtree
p1716
I706
sVshower
p1717
I1209
sVgripe
p1718
I548
sVrecommended
p1719
I4012
sVdoors
p1720
I1742
sVthrilled
p1721
I956
sVlayout
p1722
I1420
sVquaint
p1723
I1242
sVdipping
p1724
I1687
sVrings
p1725
I1877
sVyogurt
p1726
I4109
sVsmelled
p1727
I1142
sVcountry
p1728
I2602
sVplanned
p1729
I708
sVstadium
p1730
I1660
sVworked
p1731
I3416
sVexcited
p1732
I4228
sVupscale
p1733
I1769
sVcaesar
p1734
I1225
sVTHAT
p1735
I840
sVprevious
p1736
I2160
sVenchilada
p1737
I1481
sVdesire
p1738
I555
sVbrought
p1739
I8483
sVcreek
p1740
I816
sVshakes
p1741
I639
sVmemorable
p1742
I1096
sVraised
p1743
I745
sVmocha
p1744
I713
sV]
p1745
I1120
sVsupport
p1746
I1877
sVconstantly
p1747
I1091
sVinside
p1748
I14327
sVsprouts
p1749
I1606
sVpet
p1750
I1488
sVtheaters
p1751
I636
sVhole
p1752
I1893
sVleave
p1753
I6982
sVsigh
p1754
I528
sVsign
p1755
I4539
sVmelt
p1756
I1091
sVfake
p1757
I1055
sVawesome
p1758
I19607
sVallowed
p1759
I1326
sVnatural
p1760
I1282
sVst
p1761
I1890
sVso
p1762
I152857
sVdrunken
p1763
I603
sVopen
p1764
I12793
sVbite
p1765
I6101
sVstuffed
p1766
I3519
sVbits
p1767
I837
sValley
p1768
I595
sVaverage
p1769
I6774
sVdrive
p1770
I8182
sVbright
p1771
I1793
sVdancing
p1772
I1158
sVanyways
p1773
I1622
sVmany
p1774
I23237
sVcaring
p1775
I513
sVpollo
p1776
I813
sVreport
p1777
I549
sVive
p1778
I943
sVveal
p1779
I600
sVrest
p1780
I5351
sVcilantro
p1781
I1324
sVstarving
p1782
I1000
sVaround
p1783
I27482
sVjeans
p1784
I911
sVdark
p1785
I4196
sVdarn
p1786
I1303
sVin-n-out
p1787
I724
sVpickled
p1788
I584
sVlobster
p1789
I2849
sVpickles
p1790
I1137
sVmemories
p1791
I773
sVpackage
p1792
I912
sVher
p1793
I25191
sVhey
p1794
I2476
sVtight
p1795
I841
sVtv
p1796
I1016
sVto
p1797
I693826
sVappointment
p1798
I2090
sVreturned
p1799
I1756
sVjoined
p1800
I512
sVlarge
p1801
I14383
sVwasn
p1802
I20621
sV6
p1803
I6918
sVingredient
p1804
I671
sVprompt
p1805
I1672
sVsuggestions
p1806
I1160
sVtakeout
p1807
I996
sVauthentic
p1808
I5012
sVbrie
p1809
I1121
sVsucker
p1810
I637
sVsucked
p1811
I937
sVfound
p1812
I16896
sVupstairs
p1813
I1053
sVowners
p1814
I3926
sVguess
p1815
I8065
sVchowder
p1816
I502
sVgolf
p1817
I1640
sVgold
p1818
I1173
sVfactor
p1819
I977
sVbody
p1820
I1621
sVjade
p1821
I610
sVcompliment
p1822
I732
sVavailable
p1823
I5061
sVchurch
p1824
I736
sVhostess
p1825
I3040
sVspectacular
p1826
I1778
sVperson
p1827
I8089
sVde
p1828
I2000
sVusing
p1829
I2540
sVattractive
p1830
I687
sVeager
p1831
I560
sVd
p1832
I21499
sVcontinue
p1833
I2013
sVspring
p1834
I4136
sVcurious
p1835
I513
sVstaple
p1836
I787
sVelsewhere
p1837
I2162
sVposted
p1838
I871
sVus
p1839
I41819
sVum
p1840
I925
sVholes
p1841
I641
sVhaving
p1842
I12051
sVscratch
p1843
I731
sVyoung
p1844
I3282
sVstocked
p1845
I882
sVmagic
p1846
I669
sVeve
p1847
I539
sVtry
p1848
I40559
sVONLY
p1849
I829
sVrack
p1850
I935
sVspaghetti
p1851
I1097
sVconsistently
p1852
I2021
sVpunch
p1853
I766
sVdressed
p1854
I1316
sVbusy
p1855
I11385
sVcasino
p1856
I567
sVchallenge
p1857
I818
sVcabbage
p1858
I1114
sVtomato
p1859
I5267
sVcounter
p1860
I7032
sVclassy
p1861
I1220
sVmove
p1862
I2925
sVartichoke
p1863
I1267
sVdegrees
p1864
I980
sV2011
p1865
I564
sV2012
p1866
I509
sVrotation
p1867
I655
sVtruth
p1868
I524
sVwaters
p1869
I506
sVsystem
p1870
I2003
sVbother
p1871
I1595
sVresult
p1872
I780
sVwaffles
p1873
I1730
sVco-worker
p1874
I547
sVface
p1875
I3179
sVfact
p1876
I8702
sVbring
p1877
I9728
sVshould
p1878
I17409
sVmeant
p1879
I1133
sVhandle
p1880
I1296
sVpacked
p1881
I5474
sVends
p1882
I789
sVinvited
p1883
I613
sVve
p1884
I58102
sVsite
p1885
I1260
sVvs
p1886
I867
sVdrink
p1887
I19563
sVpleasantly
p1888
I1936
sVmention
p1889
I3804
sVALWAYS
p1890
I704
sVcutting
p1891
I564
sVrooms
p1892
I3844
sVchecking
p1893
I2232
sVgroupon
p1894
I1915
sVchairs
p1895
I3300
sVterminal
p1896
I832
sS'<PRICE>'
p1897
I55737
sVinn
p1898
I751
sVbike
p1899
I1999
sVchef
p1900
I5164
sVcrunch
p1901
I914
sVdaughter
p1902
I3238
sVitems
p1903
I13007
sVhighly
p1904
I6977
sVnegative
p1905
I1928
sVmain
p1906
I5442
sVaware
p1907
I876
sVveggies
p1908
I4699
sVbeach
p1909
I733
sVpizza
p1910
I31669
sVearlier
p1911
I1626
sVwaitress
p1912
I10057
sVsalon
p1913
I1714
sVavocado
p1914
I2720
sVband
p1915
I2193
sVbank
p1916
I1007
sVrocks
p1917
I1669
sVhooked
p1918
I902
sVstandard
p1919
I3887
sVcreated
p1920
I782
sVdelicious
p1921
I29501
sVthick
p1922
I3143
sVhappily
p1923
I783
sVseated
p1924
I6786
sVminus
p1925
I1009
sVenjoyed
p1926
I11282
sVadequate
p1927
I623
sVpersonality
p1928
I784
sVnasty
p1929
I1132
sVwe
p1930
I212512
sVterms
p1931
I958
sVlover
p1932
I911
sVshady
p1933
I575
sVair
p1934
I2766
sVain
p1935
I626
sVproperty
p1936
I1177
sVcontact
p1937
I924
sVphoto
p1938
I801
sVsmoothies
p1939
I565
sVboard
p1940
I1651
sVboxes
p1941
I936
sVtoys
p1942
I753
sVpost
p1943
I1277
sVmonths
p1944
I5085
sVwax
p1945
I604
sVwas
p1946
I464427
sVbecoming
p1947
I560
sVtrue
p1948
I4059
sVpromised
p1949
I555
sVtopped
p1950
I2790
sVwelcome
p1951
I2014
sVloyal
p1952
I513
sVcertainly
p1953
I3846
sVsouthwest
p1954
I1246
sVpresented
p1955
I1064
sVappear
p1956
I635
sVusually
p1957
I14080
sVF
p1958
I704
sVcar
p1959
I9192
sVcat
p1960
I879
sVcan
p1961
I87398
sVco-workers
p1962
I768
sVcab
p1963
I533
sVheart
p1964
I2721
sVheard
p1965
I6276
sVo
p1966
I1093
sVreminded
p1967
I1777
sVclothing
p1968
I1342
sVlacked
p1969
I962
sVhappen
p1970
I2360
sVlooking
p1971
I18584
sVcars
p1972
I1352
sVcart
p1973
I1117
sVcard
p1974
I4800
sVcare
p1975
I9003
sVselections
p1976
I2164
sVdirectly
p1977
I839
sVmessage
p1978
I576
sVchecked
p1979
I2868
sVslaw
p1980
I1286
sVprice
p1981
I18951
sVsauteed
p1982
I708
sVforever
p1983
I2087
sVtypically
p1984
I1790
sVgerman
p1985
I791
sVupgrade
p1986
I613
sVonly
p1987
I56735
sVtruly
p1988
I3954
sVcannot
p1989
I3614
sVcelebrate
p1990
I763
sVbetween
p1991
I6718
sVinformed
p1992
I1435
sVthese
p1993
I15506
sVaccommodating
p1994
I1578
sVpastas
p1995
I546
sVclosest
p1996
I1113
sVfavorites
p1997
I3015
sVcomplained
p1998
I702
sVstarbucks
p1999
I2672
sVrules
p2000
I545
sVlistening
p2001
I637
sVt
p2002
I200961
sVstopped
p2003
I5731
sVwheat
p2004
I1328
sVbarrio
p2005
I513
sVlol
p2006
I1579
sVlos
p2007
I1352
sVlow
p2008
I4054
sVlot
p2009
I21973
sVpeas
p2010
I676
sVpeak
p2011
I1077
sVasada
p2012
I2943
sVstudy
p2013
I564
sVcookies
p2014
I2623
sVvalue
p2015
I3640
sVdeliciousness
p2016
I580
sVloose
p2017
I531
sVvet
p2018
I750
sVvegetarian
p2019
I4296
sVfired
p2020
I557
sVtakes
p2021
I3635
sVtaken
p2022
I4201
sVyuck
p2023
I562
sVexcuse
p2024
I1202
sVhistory
p2025
I1152
sVmenus
p2026
I1776
sVkung
p2027
I557
sVhelp
p2028
I7749
sVsooo
p2029
I988
sVsoon
p2030
I6597
sVheld
p2031
I1004
sVhell
p2032
I2495
sVmcdonalds
p2033
I546
sVya
p2034
I1483
sVcupcake
p2035
I1653
sVsundays
p2036
I1007
sVoccasions
p2037
I1363
sVsurrounded
p2038
I659
sVissue
p2039
I3184
sVreason
p2040
I8328
sVmaple
p2041
I546
sVstation
p2042
I1860
sVbanana
p2043
I1883
sVselling
p2044
I927
sVeggs
p2045
I5804
sVgrew
p2046
I1087
sVcourteous
p2047
I1100
sVeggplant
p2048
I1480
sVlook
p2049
I14572
sVready
p2050
I5198
sVsliders
p2051
I1908
sVpomegranate
p2052
I645
sVassortment
p2053
I798
sVolder
p2054
I2153
sVmeals
p2055
I4563
sVlacking
p2056
I1990
sVsaturdays
p2057
I539
sVexperienced
p2058
I2091
sVminimal
p2059
I542
sVstep
p2060
I1828
sVstew
p2061
I939
sVhidden
p2062
I1979
sVpositive
p2063
I1886
sVexperiences
p2064
I2122
sVwithin
p2065
I4171
sVsmells
p2066
I948
sV..
p2067
I19592
sVproperly
p2068
I950
sVreservation
p2069
I2540
sVsounded
p2070
I1386
sVculinary
p2071
I1097
sVsuite
p2072
I613
sVunusual
p2073
I773
sVbooth
p2074
I1777
sVpicked
p2075
I3065
sVsausage
p2076
I4572
sVwin
p2077
I890
sVworthy
p2078
I702
sVcrap
p2079
I2019
sVstarted
p2080
I8655
sVstarter
p2081
I668
sVwonderful
p2082
I10442
sVflaky
p2083
I547
sVbakery
p2084
I2248
sVcombinations
p2085
I664
sVrisotto
p2086
I816
sVrecommendations
p2087
I1258
sVcompletely
p2088
I5038
sVsuch
p2089
I10537
sVmanagement
p2090
I2189
sVperfectly
p2091
I6536
sVculture
p2092
I677
sVclose
p2093
I10406
sVMUST
p2094
I633
sVbased
p2095
I3976
sVtire
p2096
I1160
sVgras
p2097
I536
sVwish
p2098
I8153
sVcomparable
p2099
I646
sVadmit
p2100
I2473
sVyay
p2101
I885
sVslowly
p2102
I565
sVbucks
p2103
I4111
sVgeneric
p2104
I699
sVstrange
p2105
I1968
sVfrequently
p2106
I1156
sVwell
p2107
I47364
sVimmediately
p2108
I3988
sVpage
p2109
I615
sVgonna
p2110
I1516
sVcranberry
p2111
I573
sVtongue
p2112
I623
sVpastries
p2113
I1367
sVequally
p2114
I1174
sVeat
p2115
I27131
sVdiego
p2116
I646
sVasian
p2117
I3701
sVwhose
p2118
I534
sVpace
p2119
I699
sV100
p2120
I2095
sV101
p2121
I629
sVdry
p2122
I6047
sVcredit
p2123
I2705
sVwatering
p2124
I681
sVwarm
p2125
I6421
sVadult
p2126
I984
sVpride
p2127
I641
sVsetup
p2128
I608
sVattempt
p2129
I932
sVfireplace
p2130
I589
sVweeks
p2131
I4035
sVmeat
p2132
I16259
sVroast
p2133
I1528
sVrosemary
p2134
I784
sVmeal
p2135
I22758
sVbone
p2136
I1002
sVmean
p2137
I6090
sVfave
p2138
I923
sVfeatured
p2139
I710
sVgym
p2140
I2284
sVdistance
p2141
I1592
sVpreparation
p2142
I546
sVstreet
p2143
I7762
sVmini
p2144
I2044
sVmodern
p2145
I3534
sVmine
p2146
I4152
sVseen
p2147
I6747
sVseem
p2148
I7307
sVmins
p2149
I1272
sVNEVER
p2150
I1247
sVconsistency
p2151
I1085
sVmashed
p2152
I2119
sVregular
p2153
I7980
sVdon
p2154
I55064
sVm
p2155
I53359
sVdog
p2156
I7836
sVexplain
p2157
I1516
sVsugar
p2158
I2930
sVfolks
p2159
I3230
sVboyfriend
p2160
I4308
sVcoast
p2161
I993
sVgrilled
p2162
I6889
sVfluffy
p2163
I1141
sVdecided
p2164
I13278
sV00
p2165
I1731
sVlazy
p2166
I1049
sVagainst
p2167
I1581
sVstudio
p2168
I1130
sVofferings
p2169
I1217
sVloaded
p2170
I1237
sVourselves
p2171
I1391
sVwebsite
p2172
I2356
sVpersonally
p2173
I2044
sVsay
p2174
I29466
sVmelted
p2175
I1606
sVchanged
p2176
I2902
sVmake
p2177
I33986
sVbelly
p2178
I1478
sVgarlic
p2179
I5446
sVopportunity
p2180
I1318
sVkid
p2181
I3101
sVbutter
p2182
I5540
sVgrimaldi
p2183
I659
sVcharacter
p2184
I746
sVwings
p2185
I6296
sVparticular
p2186
I2620
sVribs
p2187
I4029
sVsodas
p2188
I781
sVpotato
p2189
I7308
sVteeth
p2190
I853
sVwalking
p2191
I5097
sVmanager
p2192
I7790
sVtacos
p2193
I9738
sVitem
p2194
I3607
sVadds
p2195
I845
sVmussels
p2196
I736
sVslow
p2197
I5928
sVsuggestion
p2198
I927
sVconveniently
p2199
I544
sVreviews
p2200
I10196
sVconfused
p2201
I1138
sVbattered
p2202
I513
sVmay
p2203
I10524
sVfed
p2204
I561
sVmac
p2205
I3668
sVmad
p2206
I654
sV!!!
p2207
I15613
sVman
p2208
I5635
sVneck
p2209
I568
sVtall
p2210
I780
sVtalk
p2211
I3944
sVshake
p2212
I1244
sVWTF
p2213
I741
sVrock
p2214
I2777
sV3rd
p2215
I893
sVpizzeria
p2216
I1195
sVadvance
p2217
I643
sVthing
p2218
I22868
sVpleasant
p2219
I4191
sVthink
p2220
I34554
sVcheese
p2221
I30110
sVsounds
p2222
I1963
sVcheesy
p2223
I1428
sVlittle
p2224
I50045
sVeyes
p2225
I2109
sV11
p2226
I2283
sV10
p2227
I10748
sV13
p2228
I589
sV12
p2229
I3108
sV15
p2230
I5106
sV14
p2231
I788
sV16
p2232
I767
sVcroissant
p2233
I528
sVefficient
p2234
I1904
sVpotential
p2235
I1106
sVcheesecake
p2236
I1877
sVspecialty
p2237
I1792
sVshop
p2238
I10804
sVrating
p2239
I3076
sVshow
p2240
I5794
sVcorned
p2241
I621
sVshoe
p2242
I769
sVcorner
p2243
I3778
sVnearly
p2244
I2918
sVcocktails
p2245
I2448
sVoil
p2246
I4251
sVmoney
p2247
I8506
sVTO
p2248
I840
sVpile
p2249
I767
sVserves
p2250
I1870
sVserver
p2251
I15155
sVserved
p2252
I12406
sVmixed
p2253
I3924
sVstrip
p2254
I3458
sVexceptional
p2255
I1430
sVdownstairs
p2256
I620
sVromantic
p2257
I1435
sVdeep
p2258
I2585
sVfilm
p2259
I568
sVfill
p2260
I2415
sVimportant
p2261
I1944
sVchris
p2262
I1139
sVdecorated
p2263
I1281
sValright
p2264
I1818
sVdollar
p2265
I2027
sVreturning
p2266
I2076
sVdifference
p2267
I1841
sVdesserts
p2268
I2926
sVarizona
p2269
I7328
sVpublic
p2270
I1247
sVBLT
p2271
I712
sVeye
p2272
I2754
sVtwo
p2273
I30938
sV!
p2274
I220493
sVawkward
p2275
I1102
sVadvice
p2276
I1331
sVcrowded
p2277
I4420
sVplaying
p2278
I3637
sV24
p2279
I1407
sV25
p2280
I1870
sV20
p2281
I6025
sV21
p2282
I609
sVcomplain
p2283
I2133
sVsomeone
p2284
I9866
sVenergy
p2285
I953
sVhard
p2286
I11432
sVI
p2287
I932365
sVprint
p2288
I516
sVbrewery
p2289
I777
sVmembers
p2290
I1121
sVdont
p2291
I2501
sVdone
p2292
I10924
sVleast
p2293
I12038
sVpark
p2294
I5785
sVdentist
p2295
I860
sVpart
p2296
I10806
sVbelieve
p2297
I6161
sVsupposed
p2298
I2619
sVorders
p2299
I4082
sVmajority
p2300
I686
sVzucchini
p2301
I825
sVVERY
p2302
I2004
sVsalmon
p2303
I4611
sVmost
p2304
I25344
sVextremely
p2305
I6418
sVcommon
p2306
I1025
sVfans
p2307
I1602
sVsimple
p2308
I5573
sVsimply
p2309
I4174
sVgay
p2310
I772
sVgas
p2311
I1545
sVgal
p2312
I737
sVbaja
p2313
I569
sVray
p2314
I574
sVswiss
p2315
I680
sVpricing
p2316
I1813
sVfalafel
p2317
I959
sVjewelry
p2318
I841
sVpatient
p2319
I1446
sVO
p2320
I694
sVgoods
p2321
I1462
sVjimmy
p2322
I709
sVcrab
p2323
I4411
sVboys
p2324
I1065
sVsingle
p2325
I3302
sVprepared
p2326
I4793
sVhelps
p2327
I847
sVlocated
p2328
I4461
sVexchange
p2329
I531
sV35
p2330
I532
sVweekday
p2331
I890
sVtrail
p2332
I1273
sVaccount
p2333
I816
sVobvious
p2334
I978
sVreserved
p2335
I654
sVpiping
p2336
I563
sVwilling
p2337
I2224
sVfreshness
p2338
I563
sVsafeway
p2339
I983
sVliquor
p2340
I1224
sVapparently
p2341
I3246
sVmid
p2342
I501
sVmix
p2343
I4253
sVskinny
p2344
I591
sVnormally
p2345
I3098
sVBEST
p2346
I1699
sVstaff
p2347
I32840
sVgrabbed
p2348
I935
sVcoworker
p2349
I586
sVdeliver
p2350
I1240
sVtaking
p2351
I5084
sVafraid
p2352
I964
sVwrap
p2353
I2242
sVfinished
p2354
I2973
sValmost
p2355
I12247
sVhands
p2356
I3898
sVadd
p2357
I5882
sVmatch
p2358
I1140
sVitalian
p2359
I6832
sVproper
p2360
I636
sVstellar
p2361
I1022
sValthough
p2362
I9511
sVgifts
p2363
I709
sVabout
p2364
I76253
sVactual
p2365
I2238
sVridge
p2366
I572
sVvegetables
p2367
I2648
sVbeer
p2368
I18470
sVbiggest
p2369
I1550
sVchatting
p2370
I749
sV45
p2371
I2124
sV40
p2372
I1759
sVentertainment
p2373
I1133
sVlimited
p2374
I3132
sVfacilities
p2375
I650
sVpoorly
p2376
I661
sVunder
p2377
I6017
sVjack
p2378
I1063
sVcause
p2379
I1963
sVconsistent
p2380
I1824
sValmond
p2381
I760
sVrequest
p2382
I1672
sVfabulous
p2383
I3388
sVventured
p2384
I503
sVletting
p2385
I624
sVcheapest
p2386
I505
sVreach
p2387
I557
sVsmoked
p2388
I1814
sVoysters
p2389
I932
sVmanicure
p2390
I561
sVpotatoes
p2391
I6337
sVfitness
p2392
I1134
sVwaffle
p2393
I1987
sVheavenly
p2394
I832
sVBTW
p2395
I662
sVonto
p2396
I1589
sVhearing
p2397
I1067
sVtop
p2398
I14088
sVton
p2399
I2214
sVtoo
p2400
I52013
sVtom
p2401
I864
sVsnob
p2402
I761
sVthough
p2403
I24083
sVplenty
p2404
I6759
sVjalapenos
p2405
I873
sVpineapple
p2406
I1520
sVsection
p2407
I3410
sVwatch
p2408
I5733
sVnoodles
p2409
I4157
sVapproach
p2410
I548
sVweak
p2411
I995
sVwear
p2412
I1643
sVstore
p2413
I19034
sVquickly
p2414
I6173
sVexpected
p2415
I4338
sVstopping
p2416
I953
sVexterior
p2417
I579
sVsuggest
p2418
I2620
sVinsisted
p2419
I520
sVmother
p2420
I1712
sVseasonal
p2421
I962
sVthumbs
p2422
I954
sVcity
p2423
I4195
sVjudge
p2424
I919
sV50
p2425
I3081
sVhung
p2426
I565
sVspecific
p2427
I989
sVeverything
p2428
I23679
sVplus
p2429
I8835
sVbiz_photos
p2430
I700
sVHH
p2431
I828
sVregulars
p2432
I1273
sVfocus
p2433
I758
sVenvironment
p2434
I2223
sVcharge
p2435
I4434
sVcook
p2436
I3529
sVcool
p2437
I15154
sVcouches
p2438
I832
sVpedi
p2439
I625
sVhealthy
p2440
I4338
sVguilty
p2441
I540
sV(
p2442
I136500
sVstated
p2443
I1069
sVsports
p2444
I3586
sV1
p2445
I15162
sVoffers
p2446
I2447
sVhappened
p2447
I3081
sVherself
p2448
I588
sVgrab
p2449
I4017
sVcalories
p2450
I1170
sVplane
p2451
I540
sVplace
p2452
I150845
sVarray
p2453
I583
sVgiven
p2454
I5555
sVdistrict
p2455
I582
sVgives
p2456
I2118
sValas
p2457
I693
sVunfortunately
p2458
I4513
sVrent
p2459
I823
sVideal
p2460
I546
sVhungry
p2461
I4440
sVtend
p2462
I1671
sVtrade
p2463
I685
sVcollege
p2464
I2309
sVfarmers
p2465
I560
sVoutside
p2466
I13993
sVdiners
p2467
I1201
sVberry
p2468
I518
sVafterwards
p2469
I761
sVpop
p2470
I2087
sVravioli
p2471
I1050
sVeatery
p2472
I640
sVcareful
p2473
I868
sVmyself
p2474
I9252
sVcouples
p2475
I608
sVranch
p2476
I2468
sVrose
p2477
I582
sVseems
p2478
I8934
sVfurniture
p2479
I1785
sVbagel
p2480
I1689
sVenormous
p2481
I531
sVnails
p2482
I1500
sVshrimp
p2483
I10022
sVstand
p2484
I3551
sVladies
p2485
I2192
sVbuds
p2486
I1013
sVsigns
p2487
I1082
sVburro
p2488
I821
sVall
p2489
I105635
sVchinese
p2490
I6601
sVale
p2491
I1059
sVdish
p2492
I13384
sVhmmm
p2493
I528
sVthursday
p2494
I1721
sVawful
p2495
I2304
sVcheeses
p2496
I1313
sVwhat
p2497
I69417
sVcrust
p2498
I5756
sVpersonable
p2499
I879
sVminor
p2500
I768
sVknows
p2501
I2936
sVbasically
p2502
I3252
sVmellow
p2503
I559
sVglad
p2504
I5217
sVcourt
p2505
I991
sVshade
p2506
I773
sV???
p2507
I2186
sVguac
p2508
I1198
sVstyle
p2509
I8170
sVresort
p2510
I2790
sVwouldn
p2511
I7310
sVhim
p2512
I10785
sVexpect
p2513
I7728
sVbath
p2514
I602
sVdine
p2515
I1777
sVghetto
p2516
I564
sVfees
p2517
I572
sVimpeccable
p2518
I617
sVgourmet
p2519
I1515
sVbrisket
p2520
I1848
sVhotel
p2521
I7772
sVoutdoors
p2522
I557
sVnights
p2523
I3361
sVmoist
p2524
I2072
sVfinding
p2525
I2324
sVcornbread
p2526
I906
sV70
p2527
I570
sVnothing
p2528
I16940
sVLGO
p2529
I717
sVnotch
p2530
I2170
sVnumerous
p2531
I1027
sVcaprese
p2532
I742
sVrave
p2533
I1066
sVcrispy
p2534
I5262
sVarcadia
p2535
I861
sVplants
p2536
I593
sVdisappointing
p2537
I2398
sVYOU
p2538
I1065
sVtables
p2539
I10585
sVworkers
p2540
I1076
sVcustomers
p2541
I6024
sVrestroom
p2542
I849
sVlose
p2543
I836
sVwanna
p2544
I717
sVfilet
p2545
I2127
sVhighlight
p2546
I875
sVcrepes
p2547
I1010
sVmustard
p2548
I1736
sVcashier
p2549
I1488
sVproblems
p2550
I1697
sVgoat
p2551
I2049
sVonce
p2552
I15574
sVscreen
p2553
I1491
sVspoon
p2554
I796
sV?
p2555
I61461
sVsmaller
p2556
I2665
sVgoodies
p2557
I771
sVtraveling
p2558
I611
sVyelpers
p2559
I1659
sVALL
p2560
I1204
sVanywhere
p2561
I4039
sVpatron
p2562
I723
sVsip
p2563
I632
sVsit
p2564
I9547
sVsix
p2565
I1767
sVinstead
p2566
I8677
sVlight
p2567
I7991
sVhonestly
p2568
I3312
sVknowledgable
p2569
I530
sVpreviously
p2570
I782
sVunbelievable
p2571
I608
sV80
p2572
I821
sVriver
p2573
I640
sVtheir
p2574
I88276
sVshell
p2575
I1104
sVshelf
p2576
I551
sVjuly
p2577
I582
sVwhich
p2578
I67221
sVclass
p2579
I3219
sVchances
p2580
I518
sVcombo
p2581
I3754
sVwatching
p2582
I3510
sVmidnight
p2583
I585
sVchips
p2584
I10905
sVAWESOME
p2585
I1092
sVwall
p2586
I4317
sVwalk
p2587
I9197
sVmike
p2588
I997
sVcrappy
p2589
I1237
sVpresent
p2590
I748
sVunlike
p2591
I1651
sVgets
p2592
I7194
sVtomatoes
p2593
I3504
sVstudent
p2594
I844
sVscared
p2595
I533
sVswear
p2596
I964
sVsweat
p2597
I511
sVexciting
p2598
I916
sVfriends
p2599
I16615
sVkidding
p2600
I1037
sVmade
p2601
I28698
sVwhether
p2602
I2075
sVbelow
p2603
I1449
sVfactory
p2604
I869
sVclientele
p2605
I790
sVtired
p2606
I1246
sVbacon
p2607
I8170
sVtires
p2608
I927
sVfingers
p2609
I915
sVherb
p2610
I753
sVhere
p2611
I99932
sV[
p2612
I1075
sVuntil
p2613
I9210
sVholy
p2614
I1127
sVbrings
p2615
I1067
sV99
p2616
I1054
sV90
p2617
I1102
sVreviewing
p2618
I552
sVhow
p2619
I31465
sVhot
p2620
I21211
sVhop
p2621
I755
sVA
p2622
I21336
sVbeauty
p2623
I638
sVscottsdale
p2624
I14133
sVbraised
p2625
I559
sVaddicted
p2626
I561
sVheat
p2627
I3440
sVate
p2628
I7411
sVwalmart
p2629
I812
sVcucumber
p2630
I1289
sVveggie
p2631
I4185
sVtangy
p2632
I807
sVgilbert
p2633
I1245
sVbitter
p2634
I747
sVlikely
p2635
I2059
sVboston
p2636
I632
sVspacious
p2637
I1263
sVglass
p2638
I6818
sVknown
p2639
I2428
sVwide
p2640
I2050
sVgreens
p2641
I2067
sVrolled
p2642
I1071
sVmeh
p2643
I1916
sVasked
p2644
I15996
sV2nd
p2645
I1357
sVpro
p2646
I629
sVeastern
p2647
I754
sVwonderfully
p2648
I703
sVplayed
p2649
I1573
sVLOL
p2650
I759
sVLOT
p2651
I597
sVthings
p2652
I18301
sVtoasted
p2653
I1627
sVtuna
p2654
I4106
sVcarnitas
p2655
I855
sVeasy
p2656
I7469
sVeast
p2657
I2868
sVremind
p2658
I641
sVright
p2659
I30246
sVold
p2660
I16838
sVcreative
p2661
I1578
sVslightly
p2662
I3741
sVflatbread
p2663
I841
sVoffer
p2664
I7361
sVfloor
p2665
I3839
sVsmell
p2666
I2754
sVpush
p2667
I694
sVnow
p2668
I28569
sVreviewers
p2669
I1310
sVfalling
p2670
I601
sValone
p2671
I3310
sValong
p2672
I5957
sVprefer
p2673
I3488
sVloving
p2674
I604
sVlatte
p2675
I1416
sVsuck
p2676
I902
sVvarieties
p2677
I685
sVtruck
p2678
I1384
sVlighter
p2679
I504
sVcourse
p2680
I10927
sVregarding
p2681
I540
sVketchup
p2682
I1110
sVentertaining
p2683
I796
sVquite
p2684
I14731
sVbesides
p2685
I1677
sVvegetarians
p2686
I528
sVtraining
p2687
I2170
sVmassive
p2688
I989
sVspanish
p2689
I1082
sVcustom
p2690
I638
sVdraft
p2691
I1073
sVridiculous
p2692
I1772
sVscrumptious
p2693
I566
sVsan
p2694
I2312
sVsad
p2695
I2806
sVsaw
p2696
I7893
sVsat
p2697
I8053
sVaside
p2698
I1786
sVnote
p2699
I3867
sVwanting
p2700
I1908
sVknew
p2701
I5540
sVsale
p2702
I1892
sVsalt
p2703
I3382
sVgoing
p2704
I33187
sVprime
p2705
I1874
sVartist
p2706
I528
sVwhere
p2707
I22436
sVspare
p2708
I544
sVlocally
p2709
I1197
sVstarters
p2710
I642
sVquesadilla
p2711
I1613
sVribeye
p2712
I537
sVblah
p2713
I1189
sValfredo
p2714
I545
sVhubby
p2715
I2393
sVsummer
p2716
I3595
sVnoon
p2717
I834
sVtots
p2718
I729
sVintimate
p2719
I1333
sVstone
p2720
I883
sVfavorite
p2721
I20208
sVside
p2722
I21257
sVcomplete
p2723
I2459
sVhardly
p2724
I1198
sVadvantage
p2725
I1152
sVage
p2726
I1279
sVcertain
p2727
I1918
sVdrive-thru
p2728
I684
sVvelvet
p2729
I1289
sVconsider
p2730
I2108
sVsmile
p2731
I2374
sVhealthier
p2732
I584
sVsocial
p2733
I818
sVsweetness
p2734
I767
sVvia
p2735
I864
sVvig
p2736
I704
sVselect
p2737
I1252
sVkick
p2738
I2550
sVmall
p2739
I6213
sVmale
p2740
I511
sVway
p2741
I32436
sVsalty
p2742
I3255
sVdress
p2743
I1835
sVfreshly
p2744
I1446
sVplans
p2745
I602
sVpatio
p2746
I12796
sVbowl
p2747
I6216
sVattitude
p2748
I2322
sVits
p2749
I23445
sVfeatures
p2750
I688
sVmacaroni
p2751
I763
sVreally
p2752
I76934
sVdriven
p2753
I635
sVmajor
p2754
I1970
sVkobe
p2755
I676
sVmovie
p2756
I4169
sVcurrently
p2757
I698
sVimproved
p2758
I618
sVbarely
p2759
I2311
sVpatty
p2760
I1126
sVload
p2761
I592
sVdevil
p2762
I529
sVpound
p2763
I955
sVhoping
p2764
I2070
sVtriple
p2765
I523
sVbeautifully
p2766
I790
sVchase
p2767
I624
sVmint
p2768
I1402
sVtells
p2769
I922
sVpicky
p2770
I1577
sVsurprised
p2771
I5541
sVqueso
p2772
I767
sVnowhere
p2773
I776
sVcertificate
p2774
I564
sVrepair
p2775
I1045
sVgarbage
p2776
I522
sVservers
p2777
I5075
sVappropriate
p2778
I759
sVspending
p2779
I1517
sV:
p2780
I61224
sVmushy
p2781
I737
sVoccasional
p2782
I542
sVtart
p2783
I1352
sVdos
p2784
I622
sVago
p2785
I7844
sVconcerned
p2786
I987
sVcontinued
p2787
I709
sVtimely
p2788
I646
sVthis
p2789
I238393
sVodd
p2790
I2321
sVindian
p2791
I3240
sVvinegar
p2792
I826
sVgreat
p2793
I114338
sVreceive
p2794
I1167
sVinvolved
p2795
I608
sVpopcorn
p2796
I1236
sVopinion
p2797
I3075
sVgladly
p2798
I550
sVballs
p2799
I1180
sVanimals
p2800
I915
sVoh
p2801
I12191
sVpour
p2802
I774
sVthin
p2803
I4100
sVpieces
p2804
I4173
sVestablishment
p2805
I2963
sVor
p2806
I90290
sVtrain
p2807
I894
sVaccompanied
p2808
I694
sVdoing
p2809
I6035
sVarchitecture
p2810
I544
sVshut
p2811
I603
sVtempe
p2812
I6110
sVcraving
p2813
I3423
sVscary
p2814
I630
sVpudding
p2815
I1627
sVneighborhood
p2816
I4943
sVhaven
p2817
I6361
sVappealing
p2818
I740
sVBIG
p2819
I511
sVallow
p2820
I1225
sVatmosphere
p2821
I18468
sVrough
p2822
I713
sVcleaner
p2823
I591
sVcourtyard
p2824
I530
sVetc
p2825
I7644
sVgorgeous
p2826
I1484
sVdrank
p2827
I693
sVwaste
p2828
I1694
sVpretentious
p2829
I905
sVsnack
p2830
I1347
sVupon
p2831
I3878
sVbroccoli
p2832
I1395
sVless
p2833
I9909
sVfive
p2834
I5711
sVtrash
p2835
I785
sVgarage
p2836
I1014
sVjalapeno
p2837
I1417
sVliterally
p2838
I3448
sVdoes
p2839
I10185
sVjoin
p2840
I636
sVtruffle
p2841
I894
sVincludes
p2842
I1278
sVasks
p2843
I672
sVspots
p2844
I2167
sVinterest
p2845
I700
sVmonday
p2846
I2128
sVchance
p2847
I4031
sVrule
p2848
I564
sVeverybody
p2849
I806
sVsaved
p2850
I1010
sVwalks
p2851
I561
sVtickets
p2852
I1427
sVtold
p2853
I14473
sVmissed
p2854
I1555
sVkudos
p2855
I744
sVguest
p2856
I1182
sVblueberry
p2857
I808
sVhaha
p2858
I843
sVwork
p2859
I18103
sVdisappoint
p2860
I1305
sVlaw
p2861
I528
sVorder
p2862
I37373
sVoffice
p2863
I4842
sVmuffin
p2864
I951
sVsatisfied
p2865
I2185
sVticket
p2866
I1443
sVbreak
p2867
I2539
sVbread
p2868
I17270
sVnetwork
p2869
I568
sVdelight
p2870
I907
sVrated
p2871
I641
sVtarget
p2872
I1208
sVhike
p2873
I1255
sViron
p2874
I682
sVforced
p2875
I767
sVgenuine
p2876
I625
sVFYI
p2877
I534
sVpreferred
p2878
I822
sVsteak
p2879
I10123
sVsteal
p2880
I675
sVpedicure
p2881
I1085
sVyet
p2882
I9577
sVreceived
p2883
I3806
sVill
p2884
I645
sVspeak
p2885
I2043
sVrelaxing
p2886
I2004
sVcatering
p2887
I535
sVmistake
p2888
I1805
sVmayo
p2889
I1930
sVfusion
p2890
I683
sVsomehow
p2891
I1471
sVdear
p2892
I593
sVholding
p2893
I642
sVDJ
p2894
I1139
sVdance
p2895
I2152
sVwarning
p2896
I870
sVbrown
p2897
I2563
sVbrownie
p2898
I895
sVvegas
p2899
I1337
sVtrouble
p2900
I1162
sVupper
p2901
I501
sVregret
p2902
I907
sVdiscover
p2903
I520
sVbuck
p2904
I835
sVmarket
p2905
I4617
sVclub
p2906
I4345
sVclue
p2907
I639
sVfortunately
p2908
I606
sVwrite
p2909
I3382
sV??
p2910
I2485
sVdive
p2911
I2022
sS'<TIME>'
p2912
I283922
sVwhenever
p2913
I1872
sVtypical
p2914
I4203
sVsubs
p2915
I1070
sVsandwich
p2916
I19592
sVcouldn
p2917
I9035
sVhonest
p2918
I2350
sVflying
p2919
I723
sVyourself
p2920
I4935
sVthat
p2921
I291828
sVflowers
p2922
I827
sVthan
p2923
I44172
sVterrific
p2924
I1421
sV4th
p2925
I574
sVtopping
p2926
I1289
sVtooth
p2927
I539
sVprofessional
p2928
I2831
sVmission
p2929
I766
sVleather
p2930
I692
sV3
p2931
I21394
sVit
p2932
I483822
sVwhipped
p2933
I972
sVnotice
p2934
I2250
sVolives
p2935
I1661
sVcares
p2936
I964
sVfigured
p2937
I2126
sVaioli
p2938
I652
sVunit
p2939
I656
sVmuffins
p2940
I772
sVworry
p2941
I1151
sVcharges
p2942
I632
sVcharged
p2943
I2002
sVknowledgeable
p2944
I2614
sVthinking
p2945
I3776
sVimprovement
p2946
I627
sVearly
p2947
I6209
sVbenefit
p2948
I529
sVimpress
p2949
I780
sVbusiness
p2950
I10590
sVchefs
p2951
I1041
sVcomparison
p2952
I783
sVHOT
p2953
I600
sVyour
p2954
I63456
sVarea
p2955
I25153
sVJ
p2956
I694
sVyou
p2957
I265973
sVbuilding
p2958
I3894
sVmessy
p2959
I755
sVmanaged
p2960
I1255
sVcarpet
p2961
I564
sVhealth
p2962
I1357
sVheaven
p2963
I2447
sVsteakhouse
p2964
I817
sVGREAT
p2965
I1532
sVcasual
p2966
I3150
sVcreepy
p2967
I546
sVprivate
p2968
I1507
sV0
p2969
I539
sVsurprisingly
p2970
I1720
sVbeef
p2971
I13747
sVstayed
p2972
I2909
sVrude
p2973
I3432
sVa
p2974
I797657
sVpho
p2975
I4944
sVegg
p2976
I6682
sVactually
p2977
I16450
sVpeanuts
p2978
I671
sVbeen
p2979
I66851
sVbeyond
p2980
I2507
sVevent
p2981
I3742
sVfountain
p2982
I1380
sVterrible
p2983
I3414
sVterribly
p2984
I677
sVexpecting
p2985
I3146
sVmiso
p2986
I983
sVgrocery
p2987
I3255
sVattention
p2988
I3100
sVphilly
p2989
I1015
sVlie
p2990
I528
sVlil
p2991
I826
sVlit
p2992
I1066
sVclear
p2993
I1917
sVpoured
p2994
I688
sVclean
p2995
I15558
sVflights
p2996
I525
sVcircle
p2997
I633
sValbeit
p2998
I528
sVthrowing
p2999
I525
sVprobably
p3000
I15847
sVboth
p3001
I20756
sVfiance
p3002
I903
sVheaded
p3003
I1444
sVwhatever
p3004
I4188
sVboy
p3005
I2570
sVwhile
p3006
I27002
sVcleaning
p3007
I1507
sVdesk
p3008
I2385
sVroasted
p3009
I3663
sVburrito
p3010
I6569
sVsome
p3011
I75880
sVhotels
p3012
I834
sVraspberry
p3013
I997
sVdude
p3014
I1147
sVbeers
p3015
I5854
sVinfo
p3016
I566
sVAC
p3017
I642
sVAM
p3018
I580
sVAZ
p3019
I5686
sVpractically
p3020
I986
sVbarbecue
p3021
I573
sVplays
p3022
I517
sVschedule
p3023
I940
sVkorean
p3024
I1364
sVsinging
p3025
I507
sVvehicle
p3026
I682
sVpopped
p3027
I631
sVfuck
p3028
I506
sVsalad
p3029
I27887
sVride
p3030
I1951
sVcontrol
p3031
I981
sVsoggy
p3032
I2003
sVmentioned
p3033
I3123
sVfront
p3034
I10016
sVwines
p3035
I2167
sVquality
p3036
I14923
sVfinal
p3037
I978
sVexactly
p3038
I4222
sVneed
p3039
I18064
sVscrew
p3040
I694
sVupset
p3041
I870
sVimpression
p3042
I1205
sVindoor
p3043
I1010
sVearned
p3044
I502
sVwinner
p3045
I880
sVcreme
p3046
I1351
sVemployee
p3047
I2018
sVcount
p3048
I1151
sVjoint
p3049
I4830
sVcomputer
p3050
I965
sVREALLY
p3051
I1184
sVstate
p3052
I1988
sVtreat
p3053
I3709
sVAND
p3054
I2377
sVgroup
p3055
I8031
sVbegan
p3056
I1056
sVBF
p3057
I804
sVshea
p3058
I509
sVtoppings
p3059
I4576
sVartists
p3060
I596
sVmuseum
p3061
I1460
sVgluten
p3062
I1303
sVsigned
p3063
I557
sVpiece
p3064
I3864
sVreservations
p3065
I1989
sVpenny
p3066
I736
sVportion
p3067
I5128
sVupdated
p3068
I566
sVskills
p3069
I570
sVconvenience
p3070
I748
sVjapanese
p3071
I2231
sVcactus
p3072
I526
sVeven
p3073
I47996
sVlights
p3074
I1746
sVtips
p3075
I1009
sVever
p3076
I24130
sVpancakes
p3077
I2979
sVcall
p3078
I8829
sVpecan
p3079
I777
sVvodka
p3080
I1426
sVanswer
p3081
I1579
sVpurchase
p3082
I2205
sVhorchata
p3083
I709
sVfrequent
p3084
I2137
sV,
p3085
I1223185
sVbetter
p3086
I33394
sVworkout
p3087
I1030
sVstarts
p3088
I1099
sVgrade
p3089
I550
sVspinach
p3090
I3361
sVsomewhat
p3091
I2581
sVBBQ
p3092
I6045
sVsilly
p3093
I694
sVspoiled
p3094
I706
sV7th
p3095
I785
sVwearing
p3096
I1293
sVabove
p3097
I4027
sVbar
p3098
I36647
sVbay
p3099
I781
sVbag
p3100
I3317
sV18
p3101
I916
sVsaid
p3102
I24633
sVshaved
p3103
I533
sVC
p3104
I1290
sVthree
p3105
I11030
sVsuppose
p3106
I1205
sVbalance
p3107
I1085
sVemployees
p3108
I5043
sVmexico
p3109
I1194
sVsushi
p3110
I15002
sVseattle
p3111
I603
sVgrown
p3112
I913
sVvegetable
p3113
I1478
sVsmokey
p3114
I508
sVleft
p3115
I12404
sVshocked
p3116
I1038
sVbackground
p3117
I735
sVsuper
p3118
I13552
sVoffering
p3119
I1402
sVZ
p3120
I625
sVattached
p3121
I604
sVhanded
p3122
I980
sVpizzas
p3123
I3171
sVapology
p3124
I549
sVdaily
p3125
I2446
sVmild
p3126
I1343
sVmile
p3127
I1577
sVshot
p3128
I3064
sVmilk
p3129
I2576
sVdisgusting
p3130
I1158
sVfinally
p3131
I10133
sVdim
p3132
I1692
sVdid
p3133
I34018
sVdie
p3134
I2844
sVdig
p3135
I1000
sVspecials
p3136
I5640
sVdip
p3137
I3259
sVseasoning
p3138
I1256
sVfrench
p3139
I5712
sVmassage
p3140
I2641
sVcompetition
p3141
I633
sVcheckout
p3142
I521
sVdowntown
p3143
I6531
sVfly
p3144
I888
sVsoul
p3145
I769
sVsoup
p3146
I12008
sVsour
p3147
I3317
sVbites
p3148
I1865
sVclaim
p3149
I842
sVharkins
p3150
I753
sVstaying
p3151
I1682
sVaisles
p3152
I610
sVgo-to
p3153
I1038
sVswitch
p3154
I895
sVthank
p3155
I4691
sVours
p3156
I707
sVviews
p3157
I1179
sVgirl
p3158
I5401
sVliving
p3159
I2634
sVenjoyable
p3160
I1604
sVcorrect
p3161
I1237
sVcalifornia
p3162
I2502
sVpepperoni
p3163
I1300
sVlas
p3164
I565
sVbreading
p3165
I554
sVDO
p3166
I931
sVtheatre
p3167
I883
sVnormal
p3168
I2542
sVtrack
p3169
I755
sVespecially
p3170
I10716
sVsurprising
p3171
I597
sVcheeseburger
p3172
I1037
sVstupid
p3173
I966
sVfinishing
p3174
I593
sVaffordable
p3175
I2085
sVforgotten
p3176
I635
sVFOOD
p3177
I637
sVfried
p3178
I12179
sVtrader
p3179
I962
sVcalled
p3180
I8996
sVpatrons
p3181
I2344
sVharbor
p3182
I576
sVmaintained
p3183
I510
sVmark
p3184
I990
sVmary
p3185
I1131
sVshopping
p3186
I5733
sVbathrooms
p3187
I1960
sVeventually
p3188
I1048
sVobnoxious
p3189
I538
sVeveryday
p3190
I1191
sVbags
p3191
I1479
sVpar
p3192
I1502
sVpay
p3193
I8701
sVtour
p3194
I1494
sVpan
p3195
I1010
sVrunning
p3196
I3287
sVbottle
p3197
I4258
sVmcdonald
p3198
I665
sVextensive
p3199
I1424
sVmom
p3200
I4761
sVdisappointed
p3201
I9033
sVfondue
p3202
I998
sVairways
p3203
I555
sVroad
p3204
I2840
sVS
p3205
I970
sVfellow
p3206
I1256
sVforget
p3207
I3341
sVchildren
p3208
I2215
sVpremium
p3209
I588
sVburger
p3210
I19246
sVfurther
p3211
I1298
sVscore
p3212
I854
sVdestination
p3213
I986
sVresponse
p3214
I945
sVeats
p3215
I1122
sVgood
p3216
I152713
sVcell
p3217
I620
sVwrapped
p3218
I1822
sVbiscuits
p3219
I1327
sVlovers
p3220
I670
sVpure
p3221
I943
sVchai
p3222
I832
sVcups
p3223
I1611
sV5th
p3224
I724
sVgotten
p3225
I2860
sVtreated
p3226
I1802
sVages
p3227
I582
sVmountain
p3228
I1649
sVbuilt
p3229
I882
sVbuild
p3230
I918
sVparticularly
p3231
I1735
sVcarne
p3232
I3390
sVfine
p3233
I7147
sVfind
p3234
I25795
sVgiant
p3235
I2184
sVmind
p3236
I6514
sVvisiting
p3237
I3269
sVplease
p3238
I4915
sVhold
p3239
I2435
sVmeeting
p3240
I1768
sVsolid
p3241
I3449
sVitaly
p3242
I686
sVyesterday
p3243
I2372
sVspices
p3244
I1434
sVridiculously
p3245
I963
sVbig
p3246
I21414
sVbit
p3247
I24743
sVoften
p3248
I7656
sVscale
p3249
I699
sVeither
p3250
I9826
sVremembered
p3251
I1283
sVhoped
p3252
I542
sVhopes
p3253
I781
sVsort
p3254
I4322
sVdesert
p3255
I4532
sVhint
p3256
I1294
sVmin
p3257
I1580
sVuncomfortable
p3258
I1188
sVchicago
p3259
I2875
sVtoast
p3260
I3561
sVothers
p3261
I5626
sVsing
p3262
I515
sVlime
p3263
I1638
sVtan
p3264
I652
sVnative
p3265
I1001
sVdinners
p3266
I848
sVstock
p3267
I1437
sVwatery
p3268
I683
sVcollection
p3269
I741
sVlines
p3270
I2023
sVstepped
p3271
I651
sVdad
p3272
I1776
sVday
p3273
I27088
sVwarned
p3274
I778
sVskillet
p3275
I503
sVsouth
p3276
I2324
sVsadly
p3277
I1559
sVestablishments
p3278
I704
sVtime
p3279
I80102
sVgear
p3280
I542
sVloved
p3281
I11302
sVunless
p3282
I4009
sVselection
p3283
I16878
sVbeat
p3284
I3085
sVbear
p3285
I614
sVbean
p3286
I3216
sVcalling
p3287
I1171
sVlooks
p3288
I6547
sVgarden
p3289
I2101
sVotherwise
p3290
I2875
sVpalate
p3291
I592
sVgeneral
p3292
I2409
sVplain
p3293
I2595
sVappearance
p3294
I512
sVhelped
p3295
I2638
sVthought
p3296
I15803
sVsets
p3297
I775
sVcon
p3298
I726
sVtough
p3299
I2041
sVlake
p3300
I843
sVinviting
p3301
I1396
sVsoft
p3302
I4394
sVchains
p3303
I1109
sVhost
p3304
I1388
sVcustard
p3305
I977
sVbrand
p3306
I1947
sVreminds
p3307
I1461
sVannoying
p3308
I1880
sVpie
p3309
I4001
sVpig
p3310
I641
sVpit
p3311
I682
sVyelp
p3312
I8621
sVsleep
p3313
I782
sVmartinis
p3314
I814
sVrisk
p3315
I524
sVGO
p3316
I658
sVvenue
p3317
I1816
sVsurrounding
p3318
I775
sVchanges
p3319
I1340
sVmust
p3320
I10275
sVpuffs
p3321
I594
sVbuns
p3322
I995
sVgate
p3323
I683
sVover
p3324
I35579
sVoven
p3325
I1586
sVwriting
p3326
I1418
sVcrunchy
p3327
I1928
sVindependent
p3328
I628
sVdriving
p3329
I2520
sVfree
p3330
I14694
sVwanted
p3331
I15728
sVbiltmore
p3332
I1106
sVzero
p3333
I763
sVclasses
p3334
I1964
sVran
p3335
I1805
sVraw
p3336
I1670
sVrelatively
p3337
I1322
sVmetal
p3338
I689
sVqueen
p3339
I758
sVearth
p3340
I919
sVchipotle
p3341
I2444
sVcajun
p3342
I831
sVLOVE
p3343
I3660
sVfaces
p3344
I647
sVbathroom
p3345
I3175
sVcraft
p3346
I1014
sVcatch
p3347
I1714
sVcracker
p3348
I610
sVweren
p3349
I4536
sVfridays
p3350
I682
sVhearty
p3351
I879
sVlaptop
p3352
I606
sVcurry
p3353
I4125
sVremoved
p3354
I689
sVrefreshing
p3355
I2198
sVtrio
p3356
I610
sVcheck
p3357
I15326
sVtip
p3358
I4694
sVtil
p3359
I553
sVdepot
p3360
I567
sVphoenix
p3361
I22055
sVyounger
p3362
I732
sVlonger
p3363
I3595
sVserious
p3364
I1616
sVartwork
p3365
I526
sVtortillas
p3366
I2381
sVbrother
p3367
I1339
sVquick
p3368
I9662
sVsays
p3369
I3674
sVdrinks
p3370
I21103
sVstands
p3371
I921
sVwater
p3372
I10732
sVbaseball
p3373
I998
sVmemory
p3374
I580
sVcocktail
p3375
I2227
sVbirthday
p3376
I4877
sVnoise
p3377
I1156
sVanyone
p3378
I7112
sVmainly
p3379
I934
sVappetizers
p3380
I4815
sVOMG
p3381
I1435
sVcom
p3382
I2697
sVattended
p3383
I726
sVtempura
p3384
I1389
sVplastic
p3385
I1826
sVwhite
p3386
I8002
sVseason
p3387
I1559
sVmultiple
p3388
I1853
sVseafood
p3389
I3765
sVquantity
p3390
I689
sVsuperb
p3391
I1319
sVsoups
p3392
I1524
sVparking
p3393
I12920
sVways
p3394
I1165
sVreview
p3395
I13580
sVarrival
p3396
I598
sVmessed
p3397
I518
sVcome
p3398
I28747
sVnoisy
p3399
I836
sVshare
p3400
I3915
sVtasteless
p3401
I1050
sVattentive
p3402
I6358
sVshops
p3403
I2512
sVIS
p3404
I1098
sVdriver
p3405
I693
sVIT
p3406
I1253
sVIN
p3407
I667
sVkill
p3408
I873
sVrefills
p3409
I1604
sVfridge
p3410
I853
sVcolorful
p3411
I578
sVslice
p3412
I2928
sVstops
p3413
I514
sVlastly
p3414
I558
sVvalley
p3415
I9322
sVfish
p3416
I11143
sVtoilet
p3417
I611
sV5
p3418
I22136
sVrequested
p3419
I1090
sVseparate
p3420
I1586
sVbooked
p3421
I777
sVcalls
p3422
I829
sVlack
p3423
I2906
sVsong
p3424
I707
sVfar
p3425
I12270
sVfav
p3426
I896
sVfat
p3427
I2772
sVfan
p3428
I10501
sVanniversary
p3429
I996
sVwild
p3430
I1398
sVshouldn
p3431
I1445
sVmmm
p3432
I2532
sVallows
p3433
I557
sVstick
p3434
I3049
sVjoints
p3435
I1260
sVvegan
p3436
I2878
sVgrande
p3437
I533
sVhalibut
p3438
I672
sVDELICIOUS
p3439
I544
sVreturn
p3440
I7335
sVneedless
p3441
I1334
sVfancy
p3442
I2866
sVpassed
p3443
I1557
sVsyrup
p3444
I1456
sVoption
p3445
I3826
sVconvinced
p3446
I607
sVdouble
p3447
I2503
sVstale
p3448
I944
sVdecadent
p3449
I504
sVcleaned
p3450
I1262
sVsandwiches
p3451
I7779
sVwindows
p3452
I1371
sVaren
p3453
I4635
sVsure
p3454
I26464
sVhip
p3455
I2204
sVhis
p3456
I18506
sVhit
p3457
I6234
sVlobby
p3458
I1784
sVbars
p3459
I2920
sVart
p3460
I3605
sVare
p3461
I159061
sVarm
p3462
I544
sVvarious
p3463
I1943
sVinitially
p3464
I664
sVc
p3465
I1203
sVflavorless
p3466
I925
sVrib
p3467
I2362
sVpepper
p3468
I3207
sVmoving
p3469
I2166
sVopted
p3470
I1750
sVnoodle
p3471
I1834
sVedge
p3472
I661
sVunlimited
p3473
I534
sVpros
p3474
I803
sVflavors
p3475
I8049
sVwindow
p3476
I2356
sVgirlfriends
p3477
I546
sVwished
p3478
I745
sVdeals
p3479
I1908
sVnoted
p3480
I711
sVwaiting
p3481
I8981
sVmetro
p3482
I901
sVspiced
p3483
I640
sVapple
p3484
I2531
sViced
p3485
I3858
sV8
p3486
I5052
sVwomen
p3487
I2166
sVtap
p3488
I2593
sVpad
p3489
I2068
sVtax
p3490
I1064
sVtad
p3491
I1337
sVtag
p3492
I650
sVtab
p3493
I876
sVonions
p3494
I4781
sVmein
p3495
I643
sVchoose
p3496
I5309
sVcovered
p3497
I3004
sVflour
p3498
I925
sVpractice
p3499
I931
sVtray
p3500
I628
sVremove
p3501
I507
sVgrits
p3502
I670
sVyork
p3503
I1683
sVconversation
p3504
I2841
sVmongolian
p3505
I828
sVchicken
p3506
I40377
sVones
p3507
I4677
sVwords
p3508
I1841
sVburned
p3509
I586
sVview
p3510
I3235
sVcloser
p3511
I2282
sVclosed
p3512
I4125
sVpants
p3513
I943
sVbeverages
p3514
I1015
sVCA
p3515
I723
sVbbq
p3516
I1787
sVvanilla
p3517
I2323
sVchoices
p3518
I4870
sVwill
p3519
I60241
sVlemonade
p3520
I1706
sVknowing
p3521
I1421
sVvintage
p3522
I1085
sVenglish
p3523
I1607
sVboot
p3524
I592
sVcakes
p3525
I1825
sVsky
p3526
I870
sVknow
p3527
I36383
sVbecause
p3528
I49087
sVsearching
p3529
I785
sVleaf
p3530
I707
sVlead
p3531
I549
sVmisters
p3532
I673
sVoverall
p3533
I11804
sVgetting
p3534
I12362
sVgoodness
p3535
I2278
sVbook
p3536
I3561
sVsick
p3537
I1604
s.