(dp0
Vwant
p1
I29519
sVservice
p2
I73336
sVrice
p3
I14848
sVplate
p4
I10525
sV.
p5
I1782239
sVmuch
p6
I40584
sVhad
p7
I167547
sVhas
p8
I49404
sVmusic
p9
I11045
sVpeople
p10
I39868
sVyears
p11
I16119
sVdidn
p12
I35469
sVone
p13
I93753
sVbeing
p14
I22239
sVwith
p15
I249368
sVsmall
p16
I22348
sVfull
p17
I14575
sVexperience
p18
I25098
sVmore
p19
I60813
sVhuge
p20
I13758
sVsauce
p21
I26801
sValso
p22
I56743
sVcouple
p23
I13280
sVmakes
p24
I11158
sVcustomer
p25
I10313
sVperfect
p26
I15151
sV'
p27
I629789
sVcould
p28
I37065
sVstuff
p29
I10366
sVoff
p30
I31046
sVworth
p31
I17215
sVcoffee
p32
I18258
sVanother
p33
I21529
sVaway
p34
I14936
sVnight
p35
I31052
sVnot
p36
I172284
sVstars
p37
I18638
sVask
p38
I12144
sVordered
p39
I39044
sVfriendly
p40
I34429
sVeating
p41
I11386
sVduring
p42
I11562
sVspecial
p43
I15284
sVtimes
p44
I24716
sVhome
p45
I19903
sVstar
p46
I10571
sVfantastic
p47
I10063
sVroom
p48
I18138
sVbefore
p49
I26984
sVyes
p50
I10493
sVdown
p51
I26911
sVlunch
p52
I31706
sVfirst
p53
I37559
sVget
p54
I88280
sVenough
p55
I19400
sVs
p56
I215047
sVflavor
p57
I15811
sVeach
p58
I14044
sVspicy
p59
I11733
sVagain
p60
I29479
sVgo
p61
I78548
sVhour
p62
I21086
sVcoming
p63
I10044
sVthrough
p64
I12255
sVrestaurants
p65
I10795
sVrestaurant
p66
I40117
sVdessert
p67
I10042
sVhave
p68
I202740
sV)
p69
I150299
sVlike
p70
I115004
sVwould
p71
I72013
sVexcellent
p72
I15528
sVhowever
p73
I14676
sVdinner
p74
I22440
sVwhen
p75
I80010
sVpork
p76
I11467
sVweek
p77
I11572
sVwithout
p78
I12216
sVthere
p79
I131837
sVtaste
p80
I16605
sVtasty
p81
I19081
sV"
p82
I131795
sVkind
p83
I15097
sVsweet
p84
I18390
sVnice
p85
I50721
sVfrom
p86
I82786
sVour
p87
I75683
sVwho
p88
I32008
sVwhy
p89
I15228
sVlocal
p90
I10057
sVdecent
p91
I12521
sVlast
p92
I22421
sVwine
p93
I17703
sVmenu
p94
I39998
sVbest
p95
I43340
sVnever
p96
I33926
sVvisit
p97
I15470
sVfor
p98
I350268
sVhappy
p99
I25763
sVlove
p100
I48787
sVspot
p101
I12276
sVinto
p102
I22989
sV2
p103
I27038
sVtasted
p104
I10488
sVtake
p105
I25434
sVup
p106
I77757
sVwent
p107
I37498
sVan
p108
I69407
sVas
p109
I129775
sVat
p110
I151956
sVfresh
p111
I28856
sVmexican
p112
I12085
sValways
p113
I44974
sVsee
p114
I27454
sVwhole
p115
I10707
sVlocation
p116
I23138
sVbe
p117
I126782
sVby
p118
I55389
sVanything
p119
I14694
sVnext
p120
I24437
sVdefinitely
p121
I26450
sVlet
p122
I13535
sVhigh
p123
I11050
sVbad
p124
I23379
sVthen
p125
I32873
sVthem
p126
I47626
sVthey
p127
I229388
sVjust
p128
I104621
sVdo
p129
I45119
sVdishes
p130
I11126
sVthe
p131
I1535859
sVlive
p132
I10033
sVhalf
p133
I12653
sVfriend
p134
I16174
sVbreakfast
p135
I17859
sVhusband
p136
I10897
sVtrying
p137
I10085
sVvery
p138
I98863
sVfeel
p139
I18833
sVfood
p140
I140428
sVsince
p141
I25912
sVput
p142
I12381
sVpretty
p143
I40191
sVwait
p144
I25920
sVelse
p145
I13324
sVused
p146
I13298
sV...
p147
I126862
sVdoesn
p148
I10104
sV;
p149
I16876
sVshe
p150
I43821
sVi
p151
I34666
sVhe
p152
I48820
sVnew
p153
I27207
sVrecommend
p154
I15641
sVgive
p155
I23527
sVisn
p156
I10558
sVis
p157
I394768
sVin
p158
I338764
sVif
p159
I107560
sVmaybe
p160
I15653
sVafter
p161
I41876
sVlong
p162
I18412
sVwere
p163
I137899
sVthose
p164
I15698
sVdifferent
p165
I17320
sVeveryone
p166
I12724
sV4
p167
I16721
sVprices
p168
I19935
sVfun
p169
I15051
sVback
p170
I69269
sVll
p171
I26840
sVred
p172
I11254
sV!!
p173
I16925
sVbut
p174
I247634
sVminutes
p175
I19057
sVout
p176
I103581
sVevery
p177
I23864
sVenjoy
p178
I13326
sVme
p179
I107074
sVmy
p180
I258414
sVtried
p181
I19052
sVgot
p182
I43920
sVtook
p183
I18873
sVseveral
p184
I10424
sVice
p185
I10546
sVno
p186
I54138
sVtown
p187
I13541
sVand
p188
I1004247
sVany
p189
I28260
sVdining
p190
I10047
sVon
p191
I212227
sVok
p192
I11021
sVof
p193
I474520
sVhouse
p194
I13312
sVfast
p195
I10638
sVfries
p196
I18226
sVuse
p197
I10850
sVfew
p198
I29606
sVsomething
p199
I25482
sVlooked
p200
I11806
sVstill
p201
I26820
sVtable
p202
I22800
sVplaces
p203
I18007
sVown
p204
I10248
sVother
p205
I50538
sVre
p206
I29555
sVinside
p207
I14327
sVawesome
p208
I19607
sVso
p209
I152857
sVopen
p210
I12793
sVmany
p211
I23237
sVaround
p212
I27482
sVher
p213
I25191
sVto
p214
I693826
sVlarge
p215
I14383
sVwasn
p216
I20621
sVfound
p217
I16896
sVd
p218
I21499
sVus
p219
I41819
sVhaving
p220
I12051
sVtry
p221
I40559
sVbusy
p222
I11385
sVshould
p223
I17409
sVve
p224
I58102
sVdrink
p225
I19563
sS'<PRICE>'
p226
I55737
sVitems
p227
I13007
sVpizza
p228
I31669
sVwaitress
p229
I10057
sVdelicious
p230
I29501
sVenjoyed
p231
I11282
sVwe
p232
I212512
sVwas
p233
I464427
sVusually
p234
I14080
sVcan
p235
I87398
sVlooking
p236
I18584
sVprice
p237
I18951
sVonly
p238
I56735
sVthese
p239
I15506
sVt
p240
I200961
sVlot
p241
I21973
sVlook
p242
I14572
sV..
p243
I19592
sVwonderful
p244
I10442
sVsuch
p245
I10537
sVclose
p246
I10406
sVwell
p247
I47364
sVeat
p248
I27131
sVmeat
p249
I16259
sVmeal
p250
I22758
sVdon
p251
I55064
sVm
p252
I53359
sVdecided
p253
I13278
sVsay
p254
I29466
sVmake
p255
I33986
sVreviews
p256
I10196
sVmay
p257
I10524
sV!!!
p258
I15613
sVthing
p259
I22868
sVthink
p260
I34554
sVcheese
p261
I30110
sVlittle
p262
I50045
sV10
p263
I10748
sVshop
p264
I10804
sVserver
p265
I15155
sVserved
p266
I12406
sVtwo
p267
I30938
sV!
p268
I220493
sVhard
p269
I11432
sVI
p270
I932365
sVdone
p271
I10924
sVleast
p272
I12038
sVpart
p273
I10806
sVmost
p274
I25344
sVstaff
p275
I32840
sValmost
p276
I12247
sVabout
p277
I76253
sVbeer
p278
I18470
sVtop
p279
I14088
sVtoo
p280
I52013
sVthough
p281
I24083
sVstore
p282
I19034
sVeverything
p283
I23679
sVcool
p284
I15154
sV(
p285
I136500
sV1
p286
I15162
sVplace
p287
I150845
sVoutside
p288
I13993
sVshrimp
p289
I10022
sVall
p290
I105635
sVdish
p291
I13384
sVwhat
p292
I69417
sVhim
p293
I10785
sVnothing
p294
I16940
sVtables
p295
I10585
sVonce
p296
I15574
sV?
p297
I61461
sVtheir
p298
I88276
sVwhich
p299
I67221
sVchips
p300
I10905
sVfriends
p301
I16615
sVmade
p302
I28698
sVhere
p303
I99932
sVhow
p304
I31465
sVhot
p305
I21211
sVA
p306
I21336
sVscottsdale
p307
I14133
sVasked
p308
I15996
sVthings
p309
I18301
sVright
p310
I30246
sVold
p311
I16838
sVnow
p312
I28569
sVcourse
p313
I10927
sVquite
p314
I14731
sVgoing
p315
I33187
sVwhere
p316
I22436
sVfavorite
p317
I20208
sVside
p318
I21257
sVway
p319
I32436
sVpatio
p320
I12796
sVits
p321
I23445
sVreally
p322
I76934
sV:
p323
I61224
sVthis
p324
I238393
sVgreat
p325
I114338
sVoh
p326
I12191
sVor
p327
I90290
sVatmosphere
p328
I18468
sVdoes
p329
I10185
sVtold
p330
I14473
sVwork
p331
I18103
sVorder
p332
I37373
sVbread
p333
I17270
sVsteak
p334
I10123
sS'<TIME>'
p335
I283922
sVsandwich
p336
I19592
sVthat
p337
I291828
sVthan
p338
I44172
sV3
p339
I21394
sVit
p340
I483822
sVbusiness
p341
I10590
sVyour
p342
I63456
sVarea
p343
I25153
sVyou
p344
I265973
sVbeef
p345
I13747
sVa
p346
I797657
sVactually
p347
I16450
sVbeen
p348
I66851
sVclean
p349
I15558
sVprobably
p350
I15847
sVboth
p351
I20756
sVwhile
p352
I27002
sVsome
p353
I75880
sVsalad
p354
I27887
sVfront
p355
I10016
sVquality
p356
I14923
sVneed
p357
I18064
sVeven
p358
I47996
sVever
p359
I24130
sV,
p360
I1223185
sVbetter
p361
I33394
sVbar
p362
I36647
sVsaid
p363
I24633
sVthree
p364
I11030
sVsushi
p365
I15002
sVleft
p366
I12404
sVsuper
p367
I13552
sVfinally
p368
I10133
sVdid
p369
I34018
sVsoup
p370
I12008
sVespecially
p371
I10716
sVfried
p372
I12179
sVburger
p373
I19246
sVgood
p374
I152713
sVfind
p375
I25795
sVbig
p376
I21414
sVbit
p377
I24743
sVday
p378
I27088
sVtime
p379
I80102
sVloved
p380
I11302
sVselection
p381
I16878
sVthought
p382
I15803
sVmust
p383
I10275
sVover
p384
I35579
sVfree
p385
I14694
sVwanted
p386
I15728
sVcheck
p387
I15326
sVphoenix
p388
I22055
sVdrinks
p389
I21103
sVwater
p390
I10732
sVparking
p391
I12920
sVreview
p392
I13580
sVcome
p393
I28747
sVfish
p394
I11143
sV5
p395
I22136
sVfar
p396
I12270
sVfan
p397
I10501
sVsure
p398
I26464
sVhis
p399
I18506
sVare
p400
I159061
sVchicken
p401
I40377
sVwill
p402
I60241
sVknow
p403
I36383
sVbecause
p404
I49087
sVoverall
p405
I11804
sVgetting
p406
I12362
s.